(dp0
S'METTS MARK'
p1
(dp2
S'to_messages'
p3
F0.04969520275642725
sS'deferral_payments'
p4
S'NaN'
p5
sS'expenses'
p6
F0.4118321195022199
sS'poi'
p7
I00
sS'deferred_income'
p8
S'NaN'
p9
sS'email_address'
p10
S'mark.metts@enron.com'
p11
sS'from_poi_to_this_person'
p12
F0.07196969696969698
sS'salary_over_bonus'
p13
F0.1825441422714344
sS'restricted_stock_deferred'
p14
S'NaN'
p15
sS'shared_receipt_with_poi'
p16
F0.12683457148034064
sS'loan_advances'
p17
S'NaN'
p18
sS'from_messages'
p19
F0.0011841738645862357
sS'other'
p20
F0.0001677650385960943
sS'director_fees'
p21
S'NaN'
p22
sS'fract_from_poi'
p23
F0.21665480239394658
sS'bonus'
p24
F0.06683480453972257
sS'total_stock_value'
p25
F0.012799625895430116
sS'from_this_person_to_poi'
p26
F0.0016420361247947454
sS'exer_stock_opts_over_tot'
p27
S'NaN'
p28
sS'restricted_stock'
p29
F0.18366452871857167
sS'salary'
p30
F0.32887760953779366
sS'total_payments'
p31
F0.010251860171981084
sS'long_term_incentive'
p32
S'NaN'
p33
sS'exercised_stock_options'
p34
S'NaN'
p35
sS'fract_to_poi'
p36
F0.034482758620689655
ssS'BAXTER JOHN C'
p37
(dp38
g3
S'NaN'
p39
sg4
F0.21414199271306028
sg6
F0.048343284561380484
sg7
I00
sg8
F0.604623649192691
sg10
S'NaN'
p40
sg12
S'NaN'
p41
sg13
F0.05834356249442811
sg14
g15
sg16
S'NaN'
p42
sg17
g18
sg19
S'NaN'
p43
sg20
F0.25679257764224867
sg21
g22
sg23
S'NaN'
p44
sg24
F0.1424968474148802
sg25
F0.21701822618471178
sg26
S'NaN'
p45
sg27
F0.6545935280890298
sg29
F0.377008789035058
sg30
F0.24003381404615312
sg31
F0.054405313961823645
sg32
F0.2988118500196308
sg34
F0.19441664733591246
sg36
S'NaN'
p46
ssS'ELLIOTT STEVEN'
p47
(dp48
g3
g39
sg4
g5
sg6
F0.3429521247512193
sg7
I00
sg8
F0.8858598685391658
sg10
S'steven.elliott@enron.com'
p49
sg12
g41
sg13
F0.1436393559439412
sg14
g15
sg16
g42
sg17
g18
sg19
g43
sg20
F0.0012509016888186339
sg21
g22
sg23
g44
sg24
F0.03530895334174023
sg25
F0.1367702447875685
sg26
g45
sg27
F0.7507924540091401
sg29
F0.2529560322521056
sg30
F0.15346319391491212
sg31
F0.002043044855937851
sg32
g33
sg34
F0.1422927620619175
sg36
g46
ssS'CORDES WILLIAM R'
p50
(dp51
g3
F0.046846011131725415
sg4
g5
sg6
S'NaN'
p52
sg7
I00
sg8
g9
sg10
S'bill.cordes@enron.com'
p53
sg12
F0.01893939393939394
sg13
S'NaN'
p54
sg14
g15
sg16
F0.010146765718427252
sg17
g18
sg19
F0.0
sg20
S'NaN'
p55
sg21
g22
sg23
F0.060223348557424526
sg24
S'NaN'
p56
sg25
F0.022018029761909728
sg26
F0.0
sg27
F0.6536762863463192
sg29
F0.1722211972417199
sg30
S'NaN'
p57
sg31
S'NaN'
p58
sg32
g33
sg34
F0.01888377145164147
sg36
F0.0
ssS'HANNON KEVIN P'
p59
(dp60
g3
F0.06546514709780016
sg4
g5
sg6
F0.14824486582245258
sg7
I01
sg8
F0.11056633080761159
sg10
S'kevin.hannon@enron.com'
p61
sg12
F0.06060606060606061
sg13
F0.03896569002998837
sg14
g15
sg16
F0.1871715890559884
sg17
g18
sg19
F0.0013931457230426303
sg20
F0.0010953956605227145
sg21
g22
sg23
F0.14089382062506361
sg24
F0.18032786885245902
sg25
F0.13091784215016056
sg26
F0.034482758620689655
sg27
F0.8757772026030824
sg29
F0.19909693459426664
sg30
F0.21859934586565669
sg31
F0.0027861625056748696
sg32
F0.304910099284683
sg34
F0.16115009597148053
sg36
F0.65625
ssS'MORDAUNT KRISTINA M'
p62
(dp63
g3
g39
sg4
g5
sg6
F0.15252717450735953
sg7
I00
sg8
g9
sg10
S'kristina.mordaunt@enron.com'
p64
sg12
g41
sg13
F0.25062792972993186
sg14
g15
sg16
g42
sg17
g18
sg19
g43
sg20
F0.00013600744498383017
sg21
g22
sg23
g44
sg24
F0.03215636822194199
sg25
F0.005138994206615752
sg26
g45
sg27
g28
sg29
F0.16198146927384854
sg30
F0.2400257116389279
sg31
F0.006067749652869127
sg32
g33
sg34
g35
sg36
g46
ssS'MEYER ROCKFORD G'
p65
(dp66
g3
F0.011595547309833023
sg4
F0.2987564112970538
sg6
g52
sg7
I00
sg8
g9
sg10
S'rockford.meyer@enron.com'
p67
sg12
F0.0
sg13
g54
sg14
g15
sg16
F0.003623844899438304
sg17
g18
sg19
F0.0011145165784341043
sg20
g55
sg21
g22
sg23
F0.0
sg24
g56
sg25
F0.020343461798999724
sg26
F0.0
sg27
F0.5498103275084221
sg29
F0.17660034006319408
sg30
g57
sg31
F0.01784555171080395
sg32
g33
sg34
F0.014272895238997564
sg36
F0.0
ssS'MCMAHON JEFFREY'
p68
(dp69
g3
F0.1522661012456931
sg4
g5
sg6
F0.5990857992695142
sg7
I00
sg8
g9
sg10
S'jeffrey.mcmahon@enron.com'
p70
sg12
F0.10984848484848485
sg13
F0.03263942204384421
sg14
g15
sg16
F0.40333393730748324
sg17
g18
sg19
F0.0025076623014767345
sg20
F0.028702590328876426
sg21
g22
sg23
F0.11331707096715907
sg24
F0.31904161412358134
sg25
F0.03472641212889136
sg26
F0.042692939244663386
sg27
F0.6872511519327416
sg29
F0.1821523369785786
sg30
F0.3330728559455014
sg31
F0.03958707081315314
sg32
F0.12324921087795603
sg34
F0.032050249731410005
sg36
F0.5416666666666666
ssS'HORTON STANLEY C'
p71
(dp72
g3
F0.15193479989398356
sg4
F0.49534649719962814
sg6
g52
sg7
I00
sg8
g9
sg10
S'stanley.horton@enron.com'
p73
sg12
F0.08333333333333333
sg13
g54
sg14
g15
sg16
F0.19423808660989308
sg17
g18
sg19
F0.07390638060741153
sg20
g55
sg21
g22
sg23
F0.08614757808963332
sg24
g56
sg25
F0.1485273955693404
sg26
F0.024630541871921183
sg27
F0.7375906740980467
sg29
F0.26779452526818787
sg30
g57
sg31
F0.03024065986321216
sg32
g33
sg34
F0.15161650866110474
sg36
F0.013979496738117428
ssS'PIPER GREGORY F'
p74
(dp75
g3
F0.07825337927378744
sg4
F0.18876451300178115
sg6
F0.18769109638475165
sg7
I00
sg8
F0.9907237024814524
sg10
S'greg.piper@enron.com'
p76
sg12
F0.11553030303030302
sg13
F0.1450270499380566
sg14
F0.07990329204861842
sg16
F0.13408226127921724
sg17
g18
sg19
F0.014628030091947618
sg20
F7.49054487632734e-05
sg21
g22
sg23
F0.22670831471487984
sg24
F0.0416141235813367
sg25
F0.01880578964499269
sg26
F0.07881773399014778
sg27
F1.0
sg29
F0.17355822096552703
sg30
F0.17700518824142653
sg31
F0.01677758744731116
sg32
g33
sg34
F0.025535084350754092
sg36
F0.21621621621621623
ssS'HUMPHREY GENE E'
p77
(dp78
g3
F0.004704479194275113
sg4
F0.46971601151085307
sg6
F0.02119720928198062
sg7
I00
sg8
g9
sg10
S'gene.humphrey@enron.com'
p79
sg12
F0.01893939393939394
sg13
g54
sg14
g15
sg16
F0.02119949266171408
sg17
g18
sg19
F0.00034828643076065756
sg20
g55
sg21
g22
sg23
F0.35945811170212766
sg24
g56
sg25
F0.04733801735767246
sg26
F0.027914614121510674
sg27
F1.0
sg29
S'NaN'
p80
sg30
F0.11725713709543105
sg31
F0.029935174072873657
sg32
g33
sg34
F0.06636996445984913
sg36
F1.0
ssS'UMANOFF ADAM S'
p81
(dp82
g3
F0.0035780545984627618
sg4
g5
sg6
F0.2317170789318286
sg7
I00
sg8
g9
sg10
S'adam.umanoff@enron.com'
p83
sg12
F0.022727272727272728
sg13
F0.10432461589414933
sg14
g15
sg16
F0.007066497553904693
sg17
g18
sg19
F0.00041794371691278906
sg20
g55
sg21
g22
sg23
F0.4974123059229442
sg24
F0.09063682219419925
sg25
S'NaN'
p84
sg26
F0.0
sg27
g28
sg29
g80
sg30
F0.2593778611625514
sg31
F0.010914608677926619
sg32
g33
sg34
g35
sg36
F0.0
ssS'BLACHMAN JEREMY M'
p85
(dp86
g3
F0.16021733368672145
sg4
g5
sg6
F0.367692408634604
sg7
I00
sg8
g9
sg10
S'jeremy.blachman@enron.com'
p87
sg12
F0.04734848484848485
sg13
F0.08074810661213526
sg14
g15
sg16
F0.42109077731473094
sg17
g18
sg19
F0.00013931457230426304
sg20
F2.6062462842891518e-05
sg21
g22
sg23
F0.046475392220073075
sg24
F0.09836065573770492
sg25
F0.02031255902983289
sg26
F0.003284072249589491
sg27
F0.815651574524779
sg29
F0.16086038245362366
sg30
F0.22332845088275727
sg31
F0.019454363714746223
sg32
F0.15022740386481176
sg34
F0.02218738691072051
sg36
F0.14285714285714285
ssS'SUNDE MARTIN'
p88
(dp89
g3
F0.17161410018552875
sg4
g5
sg6
g52
sg7
I00
sg8
g9
sg10
S'marty.sunde@enron.com'
p90
sg12
F0.07007575757575757
sg13
F0.10495215722320005
sg14
g15
sg16
F0.46439572386301864
sg17
g18
sg19
F0.0018110894399554194
sg20
F0.010726151374452242
sg21
g22
sg23
F0.06431407695584725
sg24
F0.07944514501891552
sg25
F0.01511597052465802
sg26
F0.021346469622331693
sg27
g28
sg29
F0.19022083377672377
sg30
F0.23137684205977596
sg31
F0.014918079334860602
sg32
F0.08022282761689772
sg34
g35
sg36
F0.34210526315789475
ssS'GIBBS DANA R'
p91
(dp92
g3
F0.0074211502782931356
sg4
F0.0929796967297599
sg6
g52
sg7
I00
sg8
g9
sg10
S'dana.gibbs@enron.com'
p93
sg12
F0.0
sg13
g54
sg14
g15
sg16
F0.0038050371444102193
sg17
g18
sg19
F0.0
sg20
g55
sg21
g22
sg23
F0.0
sg24
g56
sg25
F0.046025961865982845
sg26
F0.0
sg27
F1.0
sg29
g80
sg30
g57
sg31
F0.009331569261366239
sg32
F0.0773586834747413
sg34
F0.06449217106638709
sg36
F0.0
ssS'LOWRY CHARLES P'
p94
(dp95
g3
g39
sg4
g5
sg6
g52
sg7
I00
sg8
g9
sg10
g40
sg12
g41
sg13
g54
sg14
F0.09474166462243826
sg16
g42
sg17
g18
sg19
g43
sg20
g55
sg21
g22
sg23
g44
sg24
g56
sg25
F0.008469230413834057
sg26
g45
sg27
F1.0
sg29
F0.15882452932665
sg30
g57
sg31
g58
sg32
g33
sg34
F0.01074156169996773
sg36
g46
ssS'COLWELL WESLEY'
p96
(dp97
g3
F0.11270871985157699
sg4
F0.019926517997577147
sg6
F0.07158760361306125
sg7
I01
sg8
F0.9591189286989522
sg10
S'wes.colwell@enron.com'
p98
sg12
F0.45454545454545453
sg13
F0.06407662921165881
sg14
g15
sg16
F0.20474723681826418
sg17
g18
sg19
F0.0019504040122596824
sg20
F0.00982052905448184
sg21
g22
sg23
F0.6281315808583254
sg24
F0.1424968474148802
sg25
F0.015102177188584871
sg26
F0.0180623973727422
sg27
g28
sg29
F0.1901817923845561
sg30
F0.25933554859148655
sg31
F0.014389736465396343
sg32
g33
sg34
g35
sg36
F0.275
ssS'MULLER MARK S'
p99
(dp100
g3
F0.005234561357010337
sg4
F0.1447929317603672
sg6
g52
sg7
I00
sg8
F0.7950175150768377
sg10
S's..muller@enron.com'
p101
sg12
F0.022727272727272728
sg13
F0.06033025097192301
sg14
g15
sg16
F0.020293531436854504
sg17
g18
sg19
F0.00027862914460852607
sg20
F9.121861995012031e-05
sg21
g22
sg23
F0.4059762202753442
sg24
F0.12988650693568726
sg25
F0.029721607958763052
sg26
F0.0
sg27
F0.7631852970378723
sg29
F0.17073514826285383
sg30
F0.22612648217785505
sg31
F0.03091862665230264
sg32
F0.32629100720990517
sg34
F0.03066041533320373
sg36
F0.0
ssS'JACKSON CHARLENE R'
p102
(dp103
g3
F0.013318314338722503
sg4
g5
sg6
F0.04388600922949063
sg7
I00
sg8
g9
sg10
S'charlene.jackson@enron.com'
p104
sg12
F0.04734848484848485
sg13
F0.3572910106982249
sg14
g15
sg16
F0.020837108171770247
sg17
g18
sg19
F0.0030649205906937865
sg20
F0.00023485174850650022
sg21
g22
sg23
F0.4458395183902359
sg24
F0.02269861286254729
sg25
F0.015661499000766386
sg26
F0.031198686371100164
sg27
F0.30665604151491394
sg29
F0.18110841161190047
sg30
F0.259349952870998
sg31
F0.005320856401158965
sg32
g33
sg34
F0.005292691105650911
sg36
F0.3392857142857143
ssS'WESTFAHL RICHARD K'
p105
(dp106
g3
g39
sg4
g5
sg6
F0.22624062288126326
sg7
I00
sg8
F0.9971551736194657
sg10
S'dick.westfahl@enron.com'
p107
sg12
g41
sg13
g54
sg14
g15
sg16
g42
sg17
g18
sg19
g43
sg20
F0.03871993924164218
sg21
g22
sg23
g44
sg24
g56
sg25
F0.008728109767124341
sg26
g45
sg27
g28
sg29
F0.1721402928818444
sg30
F0.05695722199065342
sg31
F0.007357952994141685
sg32
F0.03683219629759283
sg34
g35
sg36
g46
ssS'WALTERS GARETH W'
p108
(dp109
g3
g39
sg4
F0.023910749537865896
sg6
F0.14713382761411106
sg7
I00
sg8
g9
sg10
g40
sg12
g41
sg13
g54
sg14
g15
sg16
g42
sg17
g18
sg19
g43
sg20
g55
sg21
g22
sg23
g44
sg24
g56
sg25
F0.021858206092012007
sg26
g45
sg27
F1.0
sg29
g80
sg30
g57
sg31
F0.0008426255227120564
sg32
g33
sg34
F0.02990365524932684
sg36
g46
ssS'WALLS JR ROBERT H'
p110
(dp111
g3
F0.04068380598992844
sg4
g5
sg6
F0.2221551516742121
sg7
I00
sg8
g9
sg10
S'rob.walls@enron.com'
p112
sg12
F0.032196969696969696
sg13
F0.12172455921234202
sg14
g15
sg16
F0.038593948179017935
sg17
g18
sg19
F0.009334076344385623
sg20
F0.0
sg21
g22
sg23
F0.11656942638805212
sg24
F0.09836065573770492
sg25
F0.12090713522561493
sg26
F0.0
sg27
F0.7550749471780507
sg29
F0.23936997327680049
sg30
F0.32104798335585505
sg31
F0.0173680780771313
sg32
F0.09288975576468354
sg34
F0.1264593530506347
sg36
F0.0
ssS'KITCHEN LOUISE'
p113
(dp114
g3
F0.5465147097800159
sg4
g5
sg6
F0.024609058898147542
sg7
I00
sg8
g9
sg10
S'louise.kitchen@enron.com'
p115
sg12
F0.4753787878787879
sg13
F0.015017280559582194
sg14
g15
sg16
F0.6644319623120131
sg17
g18
sg19
F0.11953190303705767
sg20
F0.00906616554664037
sg21
g22
sg23
F0.1390568357948941
sg24
F0.38209331651954603
sg25
F0.012028195938855322
sg26
F0.3185550082101806
sg27
F0.2071845368018527
sg29
F0.17681437672202482
sg30
F0.24394097486363198
sg31
F0.03351684915490006
sg32
g33
sg34
F0.0022639911447045183
sg36
F0.11226851851851852
ssS'CHAN RONNIE'
p116
(dp117
g3
g39
sg4
g5
sg6
g52
sg7
I00
sg8
F0.9720423809772537
sg10
g40
sg12
g41
sg13
g54
sg14
F0.10177183859352447
sg16
g42
sg17
g18
sg19
g43
sg20
g55
sg21
F0.7096129410977938
sg23
g44
sg24
g56
sg25
g84
sg26
g45
sg27
g28
sg29
F0.15184395144033946
sg30
g57
sg31
g58
sg32
g33
sg34
g35
sg36
g46
ssS'BELFER ROBERT'
p118
(dp119
g3
g39
sg4
F0.0
sg6
g52
sg7
I00
sg8
g9
sg10
g40
sg12
g41
sg13
g54
sg14
F0.10621132276365762
sg16
g42
sg17
g18
sg19
g43
sg20
g55
sg21
F0.0
sg23
g44
sg24
g56
sg25
F0.0
sg26
g45
sg27
F0.0
sg29
g80
sg30
g57
sg31
F0.0009883386525706998
sg32
g33
sg34
F0.0
sg36
g46
ssS'SHANKMAN JEFFREY A'
p120
(dp121
g3
F0.20964749536178107
sg4
g5
sg6
F0.7822365111650592
sg7
I00
sg8
g9
sg10
S'jeffrey.shankman@enron.com'
p122
sg12
F0.17803030303030304
sg13
F0.0357118537873601
sg14
g15
sg16
F0.3131001993114695
sg17
g18
sg19
F0.185915296740039
sg20
F0.00011477136414888153
sg21
g22
sg23
F0.13427506985408258
sg24
F0.24337957124842372
sg25
F0.043050832858110864
sg26
F0.13628899835796388
sg27
F0.7169710770452217
sg29
F0.1862600902996306
sg30
F0.27335091255612043
sg31
F0.029341100966500996
sg32
F0.09558290622671123
sg34
F0.04188699528861454
sg36
F0.030958597538232
ssS'WODRASKA JOHN'
p123
(dp124
g3
g39
sg4
g5
sg6
g52
sg7
I00
sg8
g9
sg10
S'john.wodraska@enron.com'
p125
sg12
g41
sg13
g54
sg14
g15
sg16
g42
sg17
g18
sg19
g43
sg20
F0.018299806548956358
sg21
g22
sg23
g44
sg24
g56
sg25
g84
sg26
g45
sg27
g28
sg29
g80
sg30
g57
sg31
F0.001829235702768197
sg32
g33
sg34
g35
sg36
g46
ssS'BERGSIEKER RICHARD P'
p126
(dp127
g3
F0.021600848131460376
sg4
g5
sg6
F0.2581939067865188
sg7
I00
sg8
F0.8615748070601472
sg10
S'rick.bergsieker@enron.com'
p128
sg12
F0.007575757575757576
sg13
F0.2281224505142183
sg14
g15
sg16
F0.04185540858851241
sg17
g18
sg19
F0.003273892449150181
sg20
F0.04124761202684202
sg21
g22
sg23
F0.04805288595078051
sg24
F0.02269861286254729
sg25
F0.014308897611150843
sg26
F0.0
sg27
g28
sg29
F0.1879364516695205
sg30
F0.16875063581390032
sg31
F0.005974354199456747
sg32
F0.021872022262273968
sg34
g35
sg36
F0.0
ssS'URQUHART JOHN A'
p129
(dp130
g3
g39
sg4
g5
sg6
F0.9995319642193207
sg7
I00
sg8
F0.9897723824928579
sg10
g40
sg12
g41
sg13
g54
sg14
g15
sg16
g42
sg17
g18
sg19
g43
sg20
g55
sg21
F0.24804018457560242
sg23
g44
sg24
g56
sg25
g84
sg26
g45
sg27
g28
sg29
g80
sg30
g57
sg31
F0.0022065351807646696
sg32
g33
sg34
g35
sg36
g46
ssS'BIBI PHILIPPE A'
p131
(dp132
g3
F0.10270341902994964
sg4
g5
sg6
F0.16801609693152242
sg7
I00
sg8
g9
sg10
S'philippe.bibi@enron.com'
p133
sg12
F0.043560606060606064
sg13
F0.05546847231981689
sg14
g15
sg16
F0.2417104547925349
sg17
g18
sg19
F0.0019504040122596824
sg20
F0.0410904650286634
sg21
g22
sg23
F0.06585218922533066
sg24
F0.11727616645649433
sg25
F0.038407910490444445
sg26
F0.013136288998357963
sg27
F0.8091635420823129
sg29
F0.17174596330431602
sg30
F0.19189021058156377
sg31
F0.019770683841181573
sg32
F0.05919730287019196
sg34
F0.042581009884408834
sg36
F0.2
ssS'PIRO JIM'
p134
(dp135
g3
F6.626027034190299e-05
sg4
g5
sg6
g52
sg7
I00
sg8
g9
sg10
S'jim.piro@enron.com'
p136
sg12
F0.0
sg13
g54
sg14
g15
sg16
F0.0001811922449719152
sg17
g18
sg19
F0.00027862914460852607
sg20
g55
sg21
g22
sg23
F0.0
sg24
g56
sg25
F0.0018593945974594913
sg26
F0.0016420361247947454
sg27
g28
sg29
F0.15269871607947952
sg30
g57
sg31
g58
sg32
g33
sg34
g35
sg36
F0.0625
ssS'RIEKER PAULA H'
p137
(dp138
g3
F0.0842168036045587
sg4
F0.04857622877131292
sg6
F0.14488550620038054
sg7
I01
sg8
F0.9716953047377904
sg10
S'paula.rieker@enron.com'
p139
sg12
F0.06628787878787878
sg13
F0.10115430612360599
sg14
g15
sg16
F0.22757745968472548
sg17
g18
sg19
F0.004876010030649206
sg20
F0.00018803584302945435
sg21
g22
sg23
F0.12126297744168163
sg24
F0.07944514501891552
sg25
F0.03993516643785936
sg26
F0.07881773399014778
sg27
F0.8624296694016739
sg29
F0.16630821140672009
sg30
F0.22391812607525696
sg31
F0.010611778362121654
sg32
g33
sg34
F0.04751632831222877
sg36
F0.5853658536585366
ssS'WHALEY DAVID A'
p140
(dp141
g3
g39
sg4
g5
sg6
g52
sg7
I00
sg8
g9
sg10
g40
sg12
g41
sg13
g54
sg14
g15
sg16
g42
sg17
g18
sg19
g43
sg20
g55
sg21
g22
sg23
g44
sg24
g56
sg25
F0.002905368905519737
sg26
g45
sg27
F1.0
sg29
g80
sg30
g57
sg31
g58
sg32
g33
sg34
F0.0027786497281606323
sg36
g46
ssS'BECK SALLY W'
p142
(dp143
g3
F0.4809170421415319
sg4
g5
sg6
F0.1619491284473897
sg7
I00
sg8
g9
sg10
S'sally.beck@enron.com'
p144
sg12
F0.2727272727272727
sg13
F0.0929622244095631
sg14
g15
sg16
F0.4778039499909404
sg17
g18
sg19
F0.30168570632488156
sg20
F5.444158904959561e-05
sg21
g22
sg23
F0.09057459897325518
sg24
F0.07944514501891552
sg25
F0.00346094739345721
sg26
F0.6338259441707718
sg27
g28
sg29
F0.15723183630900145
sg30
F0.20782944612844476
sg31
F0.00935615412741131
sg32
g33
sg34
g35
sg36
F0.08887865530739121
ssS'HAUG DAVID L'
p145
(dp146
g3
F0.034190299496421946
sg4
g5
sg6
F0.0014303523390853618
sg7
I00
sg8
g9
sg10
S'david.haug@enron.com'
p147
sg12
F0.007575757575757576
sg13
g54
sg14
g15
sg16
F0.08497916289182823
sg17
g18
sg19
F0.0004876010030649206
sg20
g55
sg21
g22
sg23
F0.032119119230626415
sg24
g56
sg25
F0.04600610597216664
sg26
F0.011494252873563218
sg27
g28
sg29
F0.277653916369883
sg30
g57
sg31
F3.157600627155491e-06
sg32
g33
sg34
g35
sg36
F0.3684210526315789
ssS'ECHOLS JOHN B'
p148
(dp149
g3
g39
sg4
g5
sg6
F0.09352842114471929
sg7
I00
sg8
g9
sg10
S'john.echols@enron.com'
p150
sg12
g41
sg13
F0.27931477877169036
sg14
g15
sg16
g42
sg17
g18
sg19
g43
sg20
F0.005190580794262243
sg21
g22
sg23
g44
sg24
F0.01639344262295082
sg25
F0.02142308533694933
sg26
g45
sg27
F0.6241124301005604
sg29
F0.17344011787506108
sg30
F0.1636398173897465
sg31
F0.02599638111930569
sg32
F0.42660775921253075
sg34
F0.017415963774045317
sg36
g46
ssS'MENDELSOHN JOHN'
p151
(dp152
g3
g39
sg4
g5
sg6
F0.0
sg7
I00
sg8
F0.9706249627164196
sg10
g40
sg12
g41
sg13
g54
sg14
g15
sg16
g42
sg17
g18
sg19
g43
sg20
g55
sg21
F0.7465132004250291
sg23
g44
sg24
g56
sg25
g84
sg26
g45
sg27
g28
sg29
g80
sg30
g57
sg31
F0.0
sg32
g33
sg34
g35
sg36
g46
ssS'HICKERSON GARY J'
p153
(dp154
g3
F0.08368672144182349
sg4
g5
sg6
F0.4317345755965269
sg7
I00
sg8
g9
sg10
S'gary.hickerson@enron.com'
p155
sg12
F0.07575757575757576
sg13
F0.026896036813206722
sg14
g15
sg16
F0.16271063598477986
sg17
g18
sg19
F0.0010448592922819727
sg20
F0.00018668445606723034
sg21
g22
sg23
F0.13942617666021923
sg24
F0.2055485498108449
sg25
F0.009870759492617625
sg26
F0.0016420361247947454
sg27
g28
sg29
F0.17537450944893823
sg30
F0.19023641924015625
sg31
F0.0201009572792568
sg32
F0.0
sg34
g35
sg36
F0.037037037037037035
ssS'CLINE KENNETH W'
p156
(dp157
g3
g39
sg4
g5
sg6
g52
sg7
I00
sg8
g9
sg10
g40
sg12
g41
sg13
g54
sg14
F0.07624896556243538
sg16
g42
sg17
g18
sg19
g43
sg20
g55
sg21
g22
sg23
g44
sg24
g56
sg25
F0.004752618043339598
sg26
g45
sg27
g28
sg29
F0.18809981513497726
sg30
g57
sg31
g58
sg32
g33
sg34
g35
sg36
g46
ssS'LEWIS RICHARD'
p158
(dp159
g3
F0.05930294195600318
sg4
g5
sg6
g52
sg7
I00
sg8
g9
sg10
S'richard.lewis@enron.com'
p160
sg12
F0.01893939393939394
sg13
g54
sg14
g15
sg16
F0.1335386845443015
sg17
g18
sg19
F0.0009752020061298412
sg20
g55
sg21
g22
sg23
F0.048330502413731456
sg24
g56
sg25
F0.01819926939669067
sg26
F0.0
sg27
F1.0
sg29
g80
sg30
g57
sg31
g58
sg32
g33
sg34
F0.02466704201376738
sg36
F0.0
ssS'HAYES ROBERT E'
p161
(dp162
g3
F0.02961834084283064
sg4
F0.016917247748292747
sg6
g52
sg7
I00
sg8
g9
sg10
S'robert.hayes@enron.com'
p163
sg12
F0.030303030303030304
sg13
g54
sg14
g15
sg16
F0.00869722775865193
sg17
g18
sg19
F0.0
sg20
g55
sg21
g22
sg23
F0.14606551840594392
sg24
g56
sg25
F0.003977505794981264
sg26
F0.0
sg27
g28
sg29
F0.15869393068736345
sg30
g57
sg31
F7.544444556564481e-05
sg32
g33
sg34
g35
sg36
F0.0
ssS'KOPPER MICHAEL J'
p164
(dp165
g3
g39
sg4
g5
sg6
F0.5160903702731667
sg7
I01
sg8
g9
sg10
S'michael.kopper@enron.com'
p166
sg12
g41
sg13
F0.07688925786321982
sg14
g15
sg16
g42
sg17
g18
sg19
g43
sg20
F0.08759883344416315
sg21
g22
sg23
g44
sg24
F0.09205548549810845
sg25
F0.0209366769709126
sg26
g45
sg27
g28
sg29
F0.2066960709387854
sg30
F0.20150506715545188
sg31
F0.02561291128412037
sg32
F0.10508783027340668
sg34
g35
sg36
g46
ssS'LEFF DANIEL P'
p167
(dp168
g3
F0.18320964749536178
sg4
g5
sg6
g52
sg7
I00
sg8
g9
sg10
S'dan.leff@enron.com'
p169
sg12
F0.1268939393939394
sg13
F0.07476013486309827
sg14
g15
sg16
F0.4837832940750136
sg17
g18
sg19
F0.003552521593758707
sg20
F0.0002974016593294399
sg21
g22
sg23
F0.10923858135922916
sg24
F0.11727616645649433
sg25
F0.008231671733412002
sg26
F0.022988505747126436
sg27
g28
sg29
F0.17073514826285383
sg30
F0.24601519111327977
sg31
F0.025725078528417124
sg32
F0.25967714896012006
sg34
g35
sg36
F0.2222222222222222
ssS'LAVORATO JOHN J'
p170
(dp171
g3
F0.4772064670023854
sg4
g5
sg6
F0.2160356931959845
sg7
I00
sg8
g9
sg10
S'john.lavorato@enron.com'
p172
sg12
F1.0
sg13
F0.0005292212979546836
sg14
g15
sg16
F0.7175212900887842
sg17
g18
sg19
F0.17922819726943437
sg20
F0.0001496178422462291
sg21
g22
sg23
F0.33466892163213385
sg24
F1.0
sg25
F0.10601820545401935
sg26
F0.6748768472906403
sg27
F0.8184203880547798
sg29
F0.2080272211788151
sg30
F0.30502052159696647
sg31
F0.10067250616782242
sg32
F0.38732767412544516
sg34
F0.1209986321483598
sg36
F0.15899419729206962
ssS'BERBERIAN DAVID'
p173
(dp174
g3
g39
sg4
g5
sg6
F0.051370207554184984
sg7
I00
sg8
g9
sg10
S'david.berberian@enron.com'
p175
sg12
g41
sg13
g54
sg14
g15
sg16
g42
sg17
g18
sg19
g43
sg20
g55
sg21
g22
sg23
g44
sg24
g56
sg25
F0.05162754143488657
sg26
g45
sg27
F0.675590876633266
sg29
F0.20002724835807337
sg30
F0.1945523014887723
sg31
F0.002204777739437017
sg32
g33
sg34
F0.04720065008401927
sg36
g46
ssS'DETMERING TIMOTHY J'
p176
(dp177
g3
g39
sg4
F0.1497524308942965
sg6
F0.22792467685847384
sg7
I00
sg8
F0.7789649535771258
sg10
S'timothy.detmering@enron.com'
p178
sg12
g41
sg13
F0.14585062774821764
sg14
F0.08538275204756296
sg16
g42
sg17
g18
sg19
g43
sg20
F0.00010646998709521978
sg21
g22
sg23
g44
sg24
F0.04476670870113493
sg25
F0.0421522315980062
sg26
g45
sg27
F1.0
sg29
F0.1681174171596938
sg30
F0.1890768747394851
sg31
F0.011630350799290593
sg32
F0.06824657209875634
sg34
F0.05894814861357657
sg36
g46
ssS'WAKEHAM JOHN'
p179
(dp180
g3
g39
sg4
g5
sg6
F0.4532729698401242
sg7
I00
sg8
g9
sg10
g40
sg12
g41
sg13
g54
sg14
g15
sg16
g42
sg17
g18
sg19
g43
sg20
g55
sg21
F0.7877380572006034
sg23
g44
sg24
g56
sg25
g84
sg26
g45
sg27
g28
sg29
g80
sg30
g57
sg31
F0.0020560421967456533
sg32
g33
sg34
g35
sg36
g46
ssS'POWERS WILLIAM'
p181
(dp182
g3
F0.03949112112377418
sg4
g5
sg6
g52
sg7
I00
sg8
F0.9952428292079497
sg10
S'ken.powers@enron.com'
p183
sg12
F0.0
sg13
g54
sg14
g15
sg16
F0.001811922449719152
sg17
g18
sg19
F0.0009752020061298412
sg20
g55
sg21
F0.10562569197274463
sg23
F0.0
sg24
g56
sg25
g84
sg26
F0.0
sg27
g28
sg29
g80
sg30
g57
sg31
g58
sg32
g33
sg34
g35
sg36
F0.0
ssS'GOLD JOSEPH'
p184
(dp185
g3
g39
sg4
g5
sg6
g52
sg7
I00
sg8
g9
sg10
S'joe.gold@enron.com'
p186
sg12
g41
sg13
F0.1036695516255339
sg14
g15
sg16
g42
sg17
g18
sg19
g43
sg20
F0.0790837441951897
sg21
g22
sg23
g44
sg24
F0.08575031525851198
sg25
F0.018751287657765604
sg26
g45
sg27
F0.5322390248884471
sg29
F0.17537450944893823
sg30
F0.24523555948472292
sg31
F0.020730324056247973
sg32
F0.046409024368766386
sg34
F0.012614026822284017
sg36
g46
ssS'BANNANTINE JAMES M'
p187
(dp188
g3
F0.033726477604028623
sg4
g5
sg6
F0.2456225532007961
sg7
I00
sg8
F0.9987809517937933
sg10
S'james.bannantine@enron.com'
p189
sg12
F0.07386363636363637
sg13
g54
sg14
F0.07116570892391237
sg16
F0.08389200942199673
sg17
g18
sg19
F0.0011841738645862357
sg20
F0.08345017199777562
sg21
g22
sg23
F0.3170344335012405
sg24
g56
sg25
F0.10757133916468656
sg26
F0.0
sg27
F0.7874864660493999
sg29
F0.2511802247402193
sg30
F0.0
sg31
F0.008845617421728319
sg32
g33
sg34
F0.1177132143366365
sg36
F0.0
ssS'DUNCAN JOHN H'
p190
(dp191
g3
g39
sg4
g5
sg6
g52
sg7
I00
sg8
F0.993102145165208
sg10
g40
sg12
g41
sg13
g54
sg14
g15
sg16
g42
sg17
g18
sg19
g43
sg20
g55
sg21
F0.7371655310263859
sg23
g44
sg24
g56
sg25
F0.008459973823991458
sg26
g45
sg27
F1.0
sg29
g80
sg30
g57
sg31
F0.0007468546266260375
sg32
g33
sg34
F0.010728313812692751
sg36
g46
ssS'SHAPIRO RICHARD S'
p192
(dp193
g3
F1.0
sg4
g5
sg6
F0.6019683747785578
sg7
I00
sg8
g9
sg10
S'richard.shapiro@enron.com'
p194
sg12
F0.14015151515151514
sg13
F0.11975307461468801
sg14
g15
sg16
F0.8198949084979162
sg17
g18
sg19
F0.0837977152410142
sg20
F6.78589310316768e-05
sg21
g22
sg23
F0.02247532664890457
sg24
F0.07313997477931904
sg25
F0.020976734609154533
sg26
F0.10673234811165845
sg27
F0.6424782822276993
sg29
F0.17180826829889628
sg30
F0.24181094203087738
sg31
F0.010210540988239192
sg32
g33
sg34
F0.01760227856673233
sg36
F0.053497942386831275
ssS'SHERRIFF JOHN R'
p195
(dp196
g3
F0.20739464617015638
sg4
g5
sg6
g52
sg7
I00
sg8
g9
sg10
S'john.sherriff@enron.com'
p197
sg12
F0.05303030303030303
sg13
F0.07864514324562166
sg14
g15
sg16
F0.38068490668599386
sg17
g18
sg19
F0.005572582892170521
sg20
F0.17878695065999325
sg21
g22
sg23
F0.040423529097597284
sg24
F0.18032786885245902
sg25
F0.06455352486770655
sg26
F0.03776683087027915
sg27
F0.6152923918851251
sg29
F0.22445426122399717
sg30
F0.3855872579743442
sg31
F0.04186225242467759
sg32
F0.09558290622671123
sg34
F0.05334889266151191
sg36
F0.25
ssS'SHELBY REX'
p198
(dp199
g3
F0.011131725417439703
sg4
g5
sg6
F0.0994510421450911
sg7
I01
sg8
F0.9990483945868666
sg10
S'rex.shelby@enron.com'
p200
sg12
F0.02462121212121212
sg13
F0.3268035031457516
sg14
g15
sg16
F0.016126109802500455
sg17
g18
sg19
F0.0018807467261075508
sg20
F0.15186905987001395
sg21
g22
sg23
F0.26583924349881793
sg24
F0.01639344262295082
sg25
F0.05162754143488657
sg26
F0.022988505747126436
sg27
F0.675590876633266
sg29
F0.20002724835807337
sg30
F0.1902868342184463
sg31
F0.019348627546956154
sg32
g33
sg34
F0.04720065008401927
sg36
F0.358974358974359
ssS'LEMAISTRE CHARLES'
p201
(dp202
g3
g39
sg4
g5
sg6
g52
sg7
I00
sg8
F0.993102145165208
sg10
g40
sg12
g41
sg13
g54
sg14
g15
sg16
g42
sg17
g18
sg19
g43
sg20
g55
sg21
F0.8114713291078103
sg23
g44
sg24
g56
sg25
F0.009296688169148453
sg26
g45
sg27
F1.0
sg29
g80
sg30
g57
sg31
F0.000843417336936603
sg32
g33
sg34
F0.011925806357407791
sg36
g46
ssS'DEFFNER JOSEPH M'
p203
(dp204
g3
F0.04353299761463027
sg4
g5
sg6
F0.18143166458893772
sg7
I00
sg8
g9
sg10
S'joseph.deffner@enron.com'
p205
sg12
F0.2178030303030303
sg13
F0.09715407104568112
sg14
g15
sg16
F0.09965573473455336
sg17
g18
sg19
F0.0043187517414321535
sg20
F0.002466377733698967
sg21
g22
sg23
F0.7410677036772156
sg24
F0.06683480453972257
sg25
F0.004136047783208469
sg26
F0.006568144499178982
sg27
F0.17091865430406183
sg29
F0.15814199596180714
sg30
F0.18513460349069708
sg31
F0.011669613197302869
sg32
F0.05242611073495566
sg34
F0.0004103351106951242
sg36
F0.05405405405405406
ssS'KISHKILL JOSEPH G'
p206
(dp207
g3
g39
sg4
g5
sg6
F0.5082212453251099
sg7
I00
sg8
F0.9856691193197306
sg10
S'joe.kishkill@enron.com'
p208
sg12
g41
sg13
g54
sg14
g15
sg16
g42
sg17
g18
sg19
g43
sg20
F0.04491961998612512
sg21
g22
sg23
g44
sg24
g56
sg25
F0.021939928556622388
sg26
g45
sg27
g28
sg29
F0.20953572759565373
sg30
F0.15643857790149454
sg31
F0.00680523769659504
sg32
g33
sg34
g35
sg36
g46
ssS'WHALLEY LAWRENCE G'
p209
(dp210
g3
F0.39504373177842567
sg4
g5
sg6
F0.25234564661111475
sg7
I00
sg8
g9
sg10
S'greg.whalley@enron.com'
p211
sg12
F0.3522727272727273
sg13
F0.04150898966435987
sg14
g15
sg16
F0.7099112157999637
sg17
g18
sg19
F0.03789356366675954
sg20
F0.02905713635117991
sg21
g22
sg23
F0.14218273340096785
sg24
F0.3694829760403531
sg25
F0.12457193103714434
sg26
F0.03940886699507389
sg27
F0.5719291519472885
sg29
F0.31098754913572263
sg30
F0.45903467920319124
sg31
F0.0451664931837107
sg32
F0.14560525557349763
sg34
F0.09549179054630182
sg36
F0.04316546762589928
ssS'MCCARTY DANNY J'
p212
(dp213
g3
F0.09117413199045853
sg4
g5
sg6
g52
sg7
I00
sg8
g9
sg10
S'danny.mccarty@enron.com'
p214
sg12
F0.04734848484848485
sg13
g54
sg14
g15
sg16
F0.0916832759557891
sg17
g18
sg19
F0.014140429088882698
sg20
g55
sg21
g22
sg23
F0.08026978070110317
sg24
g56
sg25
F0.016336843520359644
sg26
F0.003284072249589491
sg27
F0.8840476048603302
sg29
F0.15541963623096472
sg30
g57
sg31
g58
sg32
g33
sg34
F0.019248452304650512
sg36
F0.009302325581395349
ssS'MCCONNELL MICHAEL S'
p215
(dp216
g3
F0.2168036045587066
sg4
g5
sg6
F0.3552522800341185
sg7
I00
sg8
g9
sg10
S'mike.mcconnell@enron.com'
p217
sg12
F0.17424242424242425
sg13
F0.09340545636540094
sg14
g15
sg16
F0.39626743975357853
sg17
g18
sg19
F0.19016439119531903
sg20
F5.1931870405465315e-05
sg21
g22
sg23
F0.1271546627637205
sg24
F0.12988650693568726
sg25
F0.06398993078328999
sg26
F0.3185550082101806
sg27
F0.5563856808538657
sg29
F0.23509822307537454
sg30
F0.3282024089356948
sg31
F0.020289911190792514
sg32
F0.09558290622671123
sg34
F0.047160294981243175
sg36
F0.07075127644055434
ssS'DELAINEY DAVID W'
p218
(dp219
g3
F0.20116618075801748
sg4
g5
sg6
F0.3762920193338145
sg7
I01
sg8
g9
sg10
S'david.delainey@enron.com'
p220
sg12
F0.125
sg13
F0.025978261671661805
sg14
g15
sg16
F0.37959775321616235
sg17
g18
sg19
F0.21294232376706604
sg20
F0.00016013935502354453
sg21
g22
sg23
F0.0981798295395918
sg24
F0.3694829760403531
sg25
F0.07442611533413919
sg26
F1.0
sg27
F0.6592923869020815
sg29
F0.22616586349655168
sg30
F0.3283149423693779
sg31
F0.045846342945652235
sg32
F0.24147104996226515
sg34
F0.06661293944734298
sg36
F0.198435972629521
ssS'SULLIVAN-SHAKLOVITZ COLLEEN'
p221
(dp222
g3
g39
sg4
F0.04357047793931838
sg6
g52
sg7
I00
sg8
g9
sg10
g40
sg12
g41
sg13
F0.5092465857996245
sg14
g15
sg16
g42
sg17
g18
sg19
g43
sg20
F1.5444422425417196e-05
sg21
g22
sg23
g44
sg24
F0.0037831021437578815
sg25
F0.028613400885145638
sg26
g45
sg27
F1.0
sg29
g80
sg30
F0.14611521082913734
sg31
F0.00964862326439995
sg32
F0.09558290622671123
sg34
F0.039571584871541644
sg36
g46
ssS'WROBEL BRUCE'
p223
(dp224
g3
g39
sg4
g5
sg6
g52
sg7
I00
sg8
g9
sg10
g40
sg12
g41
sg13
g54
sg14
g15
sg16
g42
sg17
g18
sg19
g43
sg20
g55
sg21
g22
sg23
g44
sg24
g56
sg25
F0.0037275168367705766
sg26
g45
sg27
F1.0
sg29
g80
sg30
g57
sg31
g58
sg32
g33
sg34
F0.003955295048064937
sg36
g46
ssS'LINDHOLM TOD A'
p225
(dp226
g3
g39
sg4
F0.04695236534553235
sg6
F0.25186011416573717
sg7
I00
sg8
g9
sg10
S'tod.lindholm@enron.com'
p227
sg12
g41
sg13
F0.36629267416567673
sg14
g15
sg16
g42
sg17
g18
sg19
g43
sg20
F0.00025367463833747745
sg21
g22
sg23
g44
sg24
F0.01639344262295082
sg25
F0.06323575266888339
sg26
g45
sg27
F0.8436302041631218
sg29
F0.1796213261358972
sg30
F0.21244511744439273
sg31
F0.008456392449008492
sg32
F0.020837786293753352
sg34
F0.07413214910226347
sg36
g46
ssS'MEYER JEROME J'
p228
(dp229
g3
g39
sg4
g5
sg6
F0.008761454847669664
sg7
I00
sg8
F0.9892928692672838
sg10
g40
sg12
g41
sg13
g54
sg14
g15
sg16
g42
sg17
g18
sg19
g43
sg20
g55
sg21
F0.2605235586532817
sg23
g44
sg24
g56
sg25
g84
sg26
g45
sg27
g28
sg29
g80
sg30
g57
sg31
F1.9341510875206264e-05
sg32
g33
sg34
g35
sg36
g46
ssS'LAY KENNETH L'
p230
(dp231
g3
F0.279353299761463
sg4
F0.04677409721126765
sg6
F0.4360343809461321
sg7
I01
sg8
F0.9146103969313437
sg10
S'kenneth.lay@enron.com'
p232
sg12
F0.23295454545454544
sg13
F0.036075640707412954
sg14
g15
sg16
F0.43649211813734373
sg17
F1.0
sg19
F0.0016717748676511562
sg20
F1.0
sg21
g22
sg23
F0.1324434474757383
sg24
F0.8738965952080706
sg25
F1.0
sg26
F0.026272577996715927
sg27
F0.7202574693756069
sg29
F1.0
sg30
F0.9649462855414344
sg31
F1.0
sg32
F0.6955536324238689
sg34
F1.0
sg36
F0.4444444444444444
ssS'BUTTS ROBERT H'
p233
(dp234
g3
g39
sg4
g5
sg6
F0.040513527108894866
sg7
I00
sg8
F0.9788309182135964
sg10
S'bob.butts@enron.com'
p235
sg12
g41
sg13
F0.09880756877668241
sg14
g15
sg16
g42
sg17
g18
sg19
g43
sg20
F0.014542275100492512
sg21
g22
sg23
g44
sg24
F0.08575031525851198
sg25
F0.00939313980089299
sg26
g45
sg27
g28
sg29
F0.17402262926616463
sg30
F0.23500491996172063
sg31
F0.01227731130210035
sg32
F0.020837786293753352
sg34
g35
sg36
g46
ssS'OLSON CINDY K'
p236
(dp237
g3
F0.07467532467532467
sg4
F0.027600317942136368
sg6
F0.27838505784834766
sg7
I00
sg8
g9
sg10
S'cindy.olson@enron.com'
p238
sg12
F0.03787878787878788
sg13
F0.12771334889231978
sg14
g15
sg16
F0.15473817720601557
sg17
g18
sg19
F0.0027862914460852605
sg20
F9.363181095409175e-05
sg21
g22
sg23
F0.07772067280046004
sg24
F0.08575031525851198
sg25
F0.053929421370975825
sg26
F0.024630541871921183
sg27
F0.6537882842868106
sg29
F0.20581487562264686
sg30
F0.295828790733727
sg31
F0.012759883446877401
sg32
F0.006062986743458851
sg34
F0.047568621071670224
sg36
F0.28846153846153844
ssS'MCDONALD REBECCA'
p239
(dp240
g3
F0.05545984627617281
sg4
g5
sg6
g52
sg7
I00
sg8
g9
sg10
S'rebecca.mcdonald@enron.com'
p241
sg12
F0.10227272727272728
sg13
g54
sg14
g15
sg16
F0.13009603188983512
sg17
g18
sg19
F6.965728615213152e-05
sg20
g55
sg21
g22
sg23
F0.2779166071683564
sg24
g56
sg25
F0.035306444289336096
sg26
F0.0016420361247947454
sg27
F0.4860363226924957
sg29
F0.20376122929481802
sg30
g57
sg31
g58
sg32
g33
sg34
F0.021954107629737797
sg36
F0.07692307692307693
ssS'CUMBERLAND MICHAEL S'
p242
(dp243
g3
g39
sg4
g5
sg6
F0.09708899241082168
sg7
I00
sg8
g9
sg10
g40
sg12
g41
sg13
F0.16947574504174692
sg14
g15
sg16
g42
sg17
g18
sg19
g43
sg20
F6.863115215294766e-05
sg21
g22
sg23
g44
sg24
F0.03215636822194199
sg25
F0.005127398039120627
sg26
g45
sg27
g28
sg29
F0.16194864686450403
sg30
F0.16602912725370708
sg31
F0.007800412989055728
sg32
F0.04053751902747935
sg34
g35
sg36
g46
ssS'GAHN ROBERT S'
p244
(dp245
g3
g39
sg4
F0.026896740786799583
sg6
F0.21841086542877763
sg7
I00
sg8
F0.9999403462713423
sg10
g40
sg12
g41
sg13
F0.10775829760476097
sg14
g15
sg16
g42
sg17
g18
sg19
g43
sg20
F0.007388708215959745
sg21
g22
sg23
g44
sg24
F0.055469104665825976
sg25
F0.007378824474529333
sg26
g45
sg27
F0.31247464529134344
sg29
F0.16352815333524048
sg30
F0.17242912869413501
sg31
F0.008694863718391465
sg32
g33
sg34
F0.002327901282217879
sg36
g46
ssS'MCCLELLAN GEORGE'
p246
(dp247
g3
F0.11178107606679036
sg4
g5
sg6
F1.0
sg7
I00
sg8
F0.9645596912619846
sg10
S'george.mcclellan@enron.com'
p248
sg12
F0.09848484848484848
sg13
F0.08083604467456337
sg14
g15
sg16
F0.2658090233737996
sg17
g18
sg19
F0.002577319587628866
sg20
F0.004979378317594663
sg21
g22
sg23
F0.13718768299824322
sg24
F0.10466582597730138
sg25
F0.02018046444115597
sg26
F0.0
sg27
F0.5669067752248219
sg29
F0.17537450944893823
sg30
F0.23671272735129606
sg31
F0.01273290382561663
sg32
g33
sg34
F0.014659442385069265
sg36
F0.0
ssS'HERMANN ROBERT J'
p249
(dp250
g3
g39
sg4
g5
sg6
F0.2108741771099884
sg7
I00
sg8
F0.9203188877119883
sg10
S'robert.hermann@enron.com'
p251
sg12
g41
sg13
F0.1073252984594823
sg14
g15
sg16
g42
sg17
g18
sg19
g43
sg20
F0.04019787394011445
sg21
g22
sg23
g44
sg24
F0.07944514501891552
sg25
F0.014489614726693285
sg26
g45
sg27
F0.33051117163407673
sg29
F0.17765111782761256
sg30
F0.23603752674919717
sg31
F0.012527205940113062
sg32
F0.015912853110321853
sg34
F0.005363647372220415
sg36
g46
ssS'SCRIMSHAW MATTHEW'
p252
(dp253
g3
g39
sg4
g5
sg6
g52
sg7
I00
sg8
g9
sg10
S'matthew.scrimshaw@enron.com'
p254
sg12
g41
sg13
g54
sg14
g15
sg16
g42
sg17
g18
sg19
g43
sg20
g55
sg21
g22
sg23
g44
sg24
g56
sg25
F0.01634957896045078
sg26
g45
sg27
F1.0
sg29
g80
sg30
g57
sg31
g58
sg32
g33
sg34
F0.02201979385763308
sg36
g46
ssS'GATHMANN WILLIAM D'
p255
(dp256
g3
g39
sg4
g5
sg6
g52
sg7
I00
sg8
g9
sg10
g40
sg12
g41
sg13
g54
sg14
F0.09945452447187866
sg16
g42
sg17
g18
sg19
g43
sg20
g55
sg21
g22
sg23
g44
sg24
g56
sg25
F0.040473737213470654
sg26
g45
sg27
F0.908341056415113
sg29
F0.16517750819638902
sg30
g57
sg31
g58
sg32
g33
sg34
F0.05096741750547873
sg36
g46
ssS'HAEDICKE MARK E'
p257
(dp258
g3
F0.26186058839120063
sg4
F0.3461261139844
sg6
F0.3325284867572119
sg7
I00
sg8
F0.7335130937080159
sg10
S'mark.haedicke@enron.com'
p259
sg12
F0.3409090909090909
sg13
F0.09131118410576433
sg14
F0.08452695974812786
sg16
F0.33429969197318354
sg17
g18
sg19
F0.13436890498746168
sg20
F0.005056117791520954
sg21
g22
sg23
F0.20658306045440314
sg24
F0.13619167717528374
sg25
F0.017235302371389805
sg26
F0.10016420361247948
sg27
F0.7747848090624458
sg29
F0.1801581164866156
sg30
F0.33638313943072484
sg31
F0.03726274843835164
sg32
F0.18007978785751813
sg34
F0.017628861689989596
sg36
F0.03142709943328181
ssS'BOWEN JR RAYMOND M'
p260
(dp261
g3
F0.1193347468857673
sg4
g5
sg6
F0.28764079347374405
sg7
I01
sg8
F1.0
sg10
S'raymond.bowen@enron.com'
p262
sg12
F0.26515151515151514
sg13
F0.05314084010194123
sg14
g15
sg16
F0.2882768617503171
sg17
g18
sg19
F0.0010448592922819727
sg20
F0.00015627824941719025
sg21
g22
sg23
F0.3466894166685752
sg24
F0.1614123581336696
sg25
F0.006024880370782777
sg26
F0.024630541871921183
sg27
g28
sg29
F0.16448892859824588
sg30
F0.25038598967753317
sg31
F0.02577684579741462
sg32
F0.17829637105313392
sg34
g35
sg36
F0.5555555555555556
ssS'GILLIS JOHN'
p263
(dp264
g3
g39
sg4
g5
sg6
g52
sg7
I00
sg8
g9
sg10
g40
sg12
g41
sg13
g54
sg14
g15
sg16
g42
sg17
g18
sg19
g43
sg20
g55
sg21
g22
sg23
g44
sg24
g56
sg25
F0.0026393284101973767
sg26
g45
sg27
F0.17586555451820562
sg29
F0.1543417943746306
sg30
g57
sg31
g58
sg32
g33
sg34
F0.00018977962474354783
sg36
g46
ssS'FITZGERALD JAY L'
p265
(dp266
g3
F0.05824277763053273
sg4
g5
sg6
F0.10376396999322005
sg7
I00
sg8
g9
sg10
S'jay.fitzgerald@enron.com'
p267
sg12
F0.001893939393939394
sg13
F0.16950783310173143
sg14
g15
sg16
F0.13063960862475085
sg17
g18
sg19
F0.00027862914460852607
sg20
F0.027550146833019828
sg21
g22
sg23
F0.004915666484815421
sg24
F0.03530895334174023
sg25
F0.033879708804365756
sg26
F0.013136288998357963
sg27
F0.4507671499053466
sg29
F0.20506894318291227
sg30
F0.1788651408333416
sg31
F0.013660813534074976
sg32
F0.09597571889742172
sg34
F0.01925095630092666
sg36
F0.5
ssS'MORAN MICHAEL P'
p268
(dp269
g3
F0.04075006626027034
sg4
g5
sg6
g52
sg7
I00
sg8
g9
sg10
S'michael.moran@enron.com'
p270
sg12
F0.0
sg13
g54
sg14
g15
sg16
F0.0226490306214894
sg17
g18
sg19
F0.0004876010030649206
sg20
g55
sg21
g22
sg23
F0.0
sg24
g56
sg25
F0.005395961209477015
sg26
F0.0
sg27
F0.31990373939615324
sg29
F0.15928035773431862
sg30
g57
sg31
g58
sg32
g33
sg34
F0.001637904726959733
sg36
F0.0
ssS'REDMOND BRIAN L'
p271
(dp272
g3
F0.10694407633183144
sg4
g5
sg6
F0.06360475034446558
sg7
I00
sg8
g9
sg10
S'brian.redmond@enron.com'
p273
sg12
F0.38636363636363635
sg13
g54
sg14
g15
sg16
F0.19224497191520204
sg17
g18
sg19
F0.014558372805795486
sg20
g55
sg21
g22
sg23
F0.5617097673707934
sg24
g56
sg25
F0.16141899738274498
sg26
F0.08045977011494253
sg27
F0.9550274194884643
sg29
F0.17193040221156242
sg30
F0.08675247416007295
sg31
F0.0010755251237101093
sg32
g33
sg34
F0.2185393030895034
sg36
F0.22171945701357465
ssS'BAZELIDES PHILIP J'
p274
(dp275
g3
g39
sg4
F0.12055979869790749
sg6
g52
sg7
I00
sg8
g9
sg10
g40
sg12
g41
sg13
g54
sg14
g15
sg16
g42
sg17
g18
sg19
g43
sg20
F8.417210221852372e-05
sg21
g22
sg23
g44
sg24
g56
sg25
F0.033440376809528535
sg26
g45
sg27
F1.0
sg29
g80
sg30
F0.07232838876430188
sg31
F0.008304277211456258
sg32
F0.0048317534476009765
sg34
F0.04647987766755309
sg36
g46
ssS'BELDEN TIMOTHY N'
p276
(dp277
g3
F0.5257089848926584
sg4
F0.3440564270716396
sg6
F0.07526627736587713
sg7
I01
sg8
F0.33393301028984007
sg10
S'tim.belden@enron.com'
p278
sg12
F0.4318181818181818
sg13
F0.0
sg14
g15
sg16
F1.0
sg17
g18
sg19
F0.032878239063806075
sg20
F0.020337987670910634
sg21
g22
sg23
F0.1312780069067062
sg24
F0.6532155107187894
sg25
F0.02349338777374559
sg26
F0.17733990147783252
sg27
F0.8679723246331021
sg29
F0.15904812479241265
sg30
F0.19222691061514377
sg31
F0.053123801264479034
sg32
g33
sg34
F0.027656085661596143
sg36
F0.2231404958677686
ssS'DURAN WILLIAM D'
p279
(dp280
g3
F0.05612244897959184
sg4
g5
sg6
F0.11214049821752728
sg7
I00
sg8
g9
sg10
S'w.duran@enron.com'
p281
sg12
F0.20075757575757575
sg13
F0.0770629879679859
sg14
g15
sg16
F0.10817177024823338
sg17
g18
sg19
F0.0
sg20
F0.0001511622844887708
sg21
g22
sg23
F0.5395052720768216
sg24
F0.08575031525851198
sg25
F0.03427995968032906
sg26
F0.0049261083743842365
sg27
F0.892782872158754
sg29
F0.16086038245362366
sg30
F0.18924972609362242
sg31
F0.020211685739169923
sg32
F0.2040882461347647
sg34
F0.042177313275469086
sg36
F0.25
ssS'THORN TERENCE H'
p282
(dp283
g3
F0.013848396501457727
sg4
F0.01823817786687781
sg6
F0.20119852153183299
sg7
I00
sg8
g9
sg10
S'terence.thorn@enron.com'
p284
sg12
F0.0
sg13
g54
sg14
g15
sg16
F0.012864649393005979
sg17
g18
sg19
F0.002020061298411814
sg20
F0.041181297538052886
sg21
g22
sg23
F0.0
sg24
g56
sg25
F0.09891101611702494
sg26
F0.0
sg27
F0.9294303494269086
sg29
F0.17101108683404484
sg30
F0.1995136755129949
sg31
F0.008799808071956986
sg32
F0.025762719477184854
sg34
F0.129543694138136
sg36
F0.0
ssS'FASTOW ANDREW S'
p285
(dp286
g3
g39
sg4
g5
sg6
F0.24396037005445836
sg7
I01
sg8
F0.604623649192691
sg10
S'andrew.fastow@enron.com'
p287
sg12
g41
sg13
F0.09569838386292275
sg14
g15
sg16
g42
sg17
g18
sg19
g43
sg20
F0.026782752093756912
sg21
g22
sg23
g44
sg24
F0.15510718789407313
sg25
F0.03740282793091964
sg26
g45
sg27
g28
sg29
F0.2533027405444973
sg30
F0.3963166456754302
sg31
F0.023406173321664052
sg32
F0.3283614491202198
sg34
g35
sg36
g46
ssS'FOY JOE'
p288
(dp289
g3
F0.0
sg4
F0.04353402792561134
sg6
g52
sg7
I00
sg8
g9
sg10
S'tracy.foy@enron.com'
p290
sg12
F0.0
sg13
g54
sg14
g15
sg16
F0.0
sg17
g18
sg19
F6.965728615213152e-05
sg20
g55
sg21
g22
sg23
F0.0
sg24
g56
sg25
F0.007883908773479264
sg26
F0.0
sg27
F1.0
sg29
g80
sg30
g57
sg31
F0.0017536464131370864
sg32
g33
sg34
F0.009903858480652509
sg36
F0.0
ssS'CALGER CHRISTOPHER F'
p291
(dp292
g3
F0.1683673469387755
sg4
g5
sg6
F0.1560265074470179
sg7
I01
sg8
F0.9253138171450525
sg10
S'christopher.calger@enron.com'
p293
sg12
F0.3768939393939394
sg13
F0.04857794649486528
sg14
g15
sg16
F0.39608624750860666
sg17
g18
sg19
F0.00919476177208136
sg20
F4.671937783688701e-05
sg21
g22
sg23
F0.35242944654644326
sg24
F0.14880201765447668
sg25
F0.00346094739345721
sg26
F0.041050903119868636
sg27
g28
sg29
F0.15723183630900145
sg30
F0.21580491564043677
sg31
F0.01582806700428531
sg32
F0.060297138948715884
sg34
g35
sg36
F0.1736111111111111
ssS'RICE KENNETH D'
p294
(dp295
g3
F0.05618870924993374
sg4
g5
sg6
F0.20471972530236424
sg7
I01
sg8
F0.0
sg10
S'ken.rice@enron.com'
p296
sg12
F0.07954545454545454
sg13
F0.06404831531872963
sg14
g15
sg16
F0.1561877151657909
sg17
g18
sg19
F0.00041794371691278906
sg20
F0.016876603022454164
sg21
g22
sg23
F0.2135300340895733
sg24
F0.21185372005044137
sg25
F0.45950590846095235
sg26
F0.006568144499178982
sg27
F0.8865343654426256
sg29
F0.3082343248234615
sg30
F0.37825547970301976
sg31
F0.004875470556122512
sg32
F0.304910099284683
sg34
F0.5762362193220057
sg36
F0.2222222222222222
ssS'KAMINSKI WINCENTY J'
p297
(dp298
g3
F0.3014842300556586
sg4
g5
sg6
F0.3649673031078451
sg7
I00
sg8
g9
sg10
S'vince.kaminski@enron.com'
p299
sg12
F0.07765151515151515
sg13
F0.20760678892282816
sg14
g15
sg16
F0.10527269432868273
sg17
g18
sg19
F1.0
sg20
F0.0004504944966213878
sg21
g22
sg23
F0.040947171048681695
sg24
F0.0416141235813367
sg25
F0.020753681310178133
sg26
F0.28078817733990147
sg27
F0.8798316102675285
sg29
F0.15723183630900145
sg30
F0.24723505353440506
sg31
F0.01049320901013131
sg32
F0.050085191494206996
sg34
F0.02465344473166317
sg36
F0.011901447661469933
ssS'LOCKHART EUGENE E'
p300
(dp301
g3
g39
sg4
g5
sg6
g52
sg7
I00
sg8
g9
sg10
g40
sg12
g41
sg13
g54
sg14
g15
sg16
g42
sg17
g18
sg19
g43
sg20
g55
sg21
g22
sg23
g44
sg24
g56
sg25
g84
sg26
g45
sg27
g28
sg29
g80
sg30
g57
sg31
g58
sg32
g33
sg34
g35
sg36
g46
ssS'COX DAVID'
p302
(dp303
g3
F0.002981712165385635
sg4
g5
sg6
F0.12122126719594077
sg7
I00
sg8
F0.9884639964059342
sg10
S'chip.cox@enron.com'
p304
sg12
F0.0
sg13
F0.11298150663303584
sg14
g15
sg16
F0.012502264903062148
sg17
g18
sg19
F0.0014628030091947619
sg20
F4.7491598958157875e-05
sg21
g22
sg23
F0.0
sg24
F0.09205548549810845
sg25
F0.010980268592059054
sg26
F0.006568144499178982
sg27
F0.29006479695266807
sg29
F0.17174596330431602
sg30
F0.282513834860337
sg31
F0.010633920191595867
sg32
g33
sg34
F0.0033269957964016934
sg36
F0.12121212121212122
ssS'OVERDYKE JR JERE C'
p305
(dp306
g3
g39
sg4
g5
sg6
F0.08173566913807055
sg7
I00
sg8
g9
sg10
S'jere.overdyke@enron.com'
p307
sg12
g41
sg13
g54
sg14
g15
sg16
g42
sg17
g18
sg19
g43
sg20
F1.67958093876412e-05
sg21
g22
sg23
g44
sg24
g56
sg25
F0.14956384881356252
sg26
g45
sg27
F0.7400649026139057
sg29
F0.26750298165676467
sg30
F0.08504286623555858
sg31
F0.0024105818439219256
sg32
F0.013122582965916901
sg34
F0.15324727991030104
sg36
g46
ssS'PEREIRA PAULO V. FERRAZ'
p308
(dp309
g3
g39
sg4
g5
sg6
F0.12157557465608118
sg7
I00
sg8
F0.9713385240640001
sg10
g40
sg12
g41
sg13
g54
sg14
g15
sg16
g42
sg17
g18
sg19
g43
sg20
g55
sg21
F0.7279367509046731
sg23
g44
sg24
g56
sg25
g84
sg26
g45
sg27
g28
sg29
g80
sg30
g57
sg31
F0.0002683863970371857
sg32
g33
sg34
g35
sg36
g46
ssS'STABLER FRANK'
p310
(dp311
g3
g39
sg4
g5
sg6
F0.07158760361306125
sg7
I00
sg8
g9
sg10
S'frank.stabler@enron.com'
p312
sg12
g41
sg13
F0.1406234450260837
sg14
g15
sg16
g42
sg17
g18
sg19
g43
sg20
F0.03437050030372422
sg21
g22
sg23
g44
sg24
F0.05422446406052964
sg25
F0.011307829807566077
sg26
g45
sg27
g28
sg29
F0.1794420697143368
sg30
F0.2151864318889142
sg31
F0.010737184354001986
sg32
g33
sg34
g35
sg36
g46
ssS'SKILLING JEFFREY K'
p313
(dp314
g3
F0.23654916512059368
sg4
g5
sg6
F0.1276731623034359
sg7
I01
sg8
g9
sg10
S'jeff.skilling@enron.com'
p315
sg12
F0.16666666666666666
sg13
F0.050595556610527836
sg14
g15
sg16
F0.369632179742707
sg17
g18
sg19
F0.006687099470604625
sg20
F0.0021351914003139272
sg21
g22
sg23
F0.11163320017129214
sg24
F0.6973518284993695
sg25
F0.5317507033126446
sg26
F0.04926108374384237
sg27
F0.7559117281840634
sg29
F0.5440551591529837
sg30
F1.0
sg31
F0.08384122985357859
sg32
F0.3645981224972721
sg34
F0.5603918917223095
sg36
F0.2777777777777778
ssS'BLAKE JR. NORMAN P'
p316
(dp317
g3
g39
sg4
g5
sg6
F0.004947181943442031
sg7
I00
sg8
F0.9677610128917702
sg10
g40
sg12
g41
sg13
g54
sg14
g15
sg16
g42
sg17
g18
sg19
g43
sg20
g55
sg21
F0.8210716382199303
sg23
g44
sg24
g56
sg25
g84
sg26
g45
sg27
g28
sg29
g80
sg30
g57
sg31
F1.0921242536124955e-05
sg32
g33
sg34
g35
sg36
g46
ssS'SHERRICK JEFFREY B'
p318
(dp319
g3
F0.036840710310098064
sg4
g5
sg6
g52
sg7
I00
sg8
g9
sg10
S'jeffrey.sherrick@enron.com'
p320
sg12
F0.07386363636363637
sg13
g54
sg14
g15
sg16
F0.10527269432868273
sg17
g18
sg19
F0.0009055447199777097
sg20
g55
sg21
g22
sg23
F0.29272673631599044
sg24
g56
sg25
F0.03817704503652396
sg26
F0.029556650246305417
sg27
F0.7938034050395903
sg29
F0.17335351278093103
sg30
g57
sg31
g58
sg32
g33
sg34
F0.04143776088693179
sg36
F0.72
ssS'PRENTICE JAMES'
p321
(dp322
g3
g39
sg4
F0.1021286501702277
sg6
g52
sg7
I00
sg8
g9
sg10
S'james.prentice@enron.com'
p323
sg12
g41
sg13
g54
sg14
g15
sg16
g42
sg17
g18
sg19
g43
sg20
g55
sg21
g22
sg23
g44
sg24
g56
sg25
F0.02317469660916466
sg26
g45
sg27
F0.822535228285216
sg29
F0.16199868664296083
sg30
g57
sg31
F0.005448068115722104
sg32
g33
sg34
F0.02570806390745882
sg36
g46
ssS'GRAY RODNEY'
p324
(dp325
g3
g39
sg4
F0.030030676209014794
sg6
g52
sg7
I00
sg8
g9
sg10
g40
sg12
g41
sg13
g54
sg14
g15
sg16
g42
sg17
g18
sg19
g43
sg20
F0.06571900977699509
sg21
g22
sg23
g44
sg24
g56
sg25
g84
sg26
g45
sg27
g28
sg29
g80
sg30
F0.005525841727577263
sg31
F0.011071011299816642
sg32
F0.058390401817418544
sg34
g35
sg36
g46
ssS'PICKERING MARK R'
p326
(dp327
g3
F0.05572488735754042
sg4
g5
sg6
F0.1378081053299215
sg7
I00
sg8
g9
sg10
S'mark.pickering@enron.com'
p328
sg12
F0.013257575757575758
sg13
F0.6875492391134974
sg14
g15
sg16
F0.13154556984961044
sg17
F0.0
sg19
F0.0038311507383672334
sg20
g55
sg21
g22
sg23
F0.03586575368431029
sg24
F0.029003783102143757
sg25
F0.0014829056927844434
sg26
F0.0
sg27
F1.0
sg29
g80
sg30
F0.589279074813127
sg31
F0.013388825347943207
sg32
g33
sg34
F0.0007428425231792169
sg36
F0.0
ssS'NOLES JAMES L'
p329
(dp330
g3
g39
sg4
F0.13429854399041885
sg6
g52
sg7
I00
sg8
g9
sg10
g40
sg12
g41
sg13
g54
sg14
F0.0981707490342833
sg16
g42
sg17
g18
sg19
g43
sg20
g55
sg21
g22
sg23
g44
sg24
g56
sg25
F0.008398025876583292
sg26
g45
sg27
g28
sg29
F0.1766508405070452
sg30
g57
sg31
F0.007476396814608625
sg32
g33
sg34
g35
sg36
g46
ssS'KEAN STEVEN J'
p331
(dp332
g3
F0.8413066525311423
sg4
g5
sg6
F0.1828620169280231
sg7
I00
sg8
g9
sg10
S'steven.kean@enron.com'
p333
sg12
F0.26515151515151514
sg13
F0.11666457415805677
sg14
g15
sg16
F0.6589961949628556
sg17
g18
sg19
F0.46997770966843133
sg20
F0.00011863246975523583
sg21
g22
sg23
F0.05050564028306514
sg24
F0.11727616645649433
sg25
F0.12608767219367814
sg26
F0.6354679802955665
sg27
F0.37514631395220194
sg29
F0.3878850989946899
sg30
F0.3635829204856763
sg31
F0.016873116936621402
sg32
F0.04546245221091085
sg34
F0.05877877947010722
sg36
F0.05725699067909454
ssS'FOWLER PEGGY'
p334
(dp335
g3
F0.03047972435727538
sg4
g5
sg6
g52
sg7
I00
sg8
g9
sg10
S'kulvinder.fowler@enron.com'
p336
sg12
F0.0
sg13
g54
sg14
g15
sg16
F0.0014495379597753216
sg17
g18
sg19
F0.0016717748676511562
sg20
g55
sg21
g22
sg23
F0.0
sg24
g56
sg25
F0.0392406373815154
sg26
F0.0
sg27
F0.7233953479202486
sg29
F0.1822311683441797
sg30
g57
sg31
g58
sg32
g33
sg34
F0.03847107850817376
sg36
F0.0
ssS'WASAFF GEORGE'
p337
(dp338
g3
F0.022727272727272728
sg4
F0.14301254768749166
sg6
g52
sg7
I00
sg8
F0.833742489410036
sg10
S'george.wasaff@enron.com'
p339
sg12
F0.041666666666666664
sg13
F0.24362088475423962
sg14
g15
sg16
F0.060699402065591594
sg17
g18
sg19
F0.0012538311507383673
sg20
F0.00013735883194605417
sg21
g22
sg23
F0.2530585106382979
sg24
F0.03215636822194199
sg25
F0.04273330131027945
sg26
F0.011494252873563218
sg27
F0.8243297422439388
sg29
F0.1723266896170166
sg30
F0.23363651340813354
sg31
F0.009986969345057141
sg32
F0.025762719477184854
sg34
F0.0484778046497988
sg36
F0.23333333333333334
ssS'WHITE JR THOMAS E'
p340
(dp341
g3
g39
sg4
g5
sg6
F0.3552041642061982
sg7
I00
sg8
g9
sg10
S'thomas.white@enron.com'
p342
sg12
g41
sg13
F0.2133501059925539
sg14
g15
sg16
g42
sg17
g18
sg19
g43
sg20
F0.10477698881447359
sg21
g22
sg23
g44
sg24
F0.04791929382093316
sg25
F0.3089913976984781
sg26
g45
sg27
F0.14904457843203212
sg29
F0.9473332771321552
sg30
F0.2854442054734462
sg31
F0.018677265647250915
sg32
g33
sg34
F0.03766953765368386
sg36
g46
ssS'CHRISTODOULOU DIOMEDES'
p343
(dp344
g3
g39
sg4
g5
sg6
g52
sg7
I00
sg8
g9
sg10
S'diomedes.christodoulou@enron.com'
p345
sg12
g41
sg13
g54
sg14
g15
sg16
g42
sg17
g18
sg19
g43
sg20
g55
sg21
g22
sg23
g44
sg24
g56
sg25
F0.12454646015696207
sg26
g45
sg27
F0.8544213645129114
sg29
F0.20472085289433764
sg30
g57
sg31
g58
sg32
g33
sg34
F0.14918780697065395
sg36
g46
ssS'ALLEN PHILLIP K'
p346
(dp347
g3
F0.18851046912271402
sg4
F0.45519895121977366
sg6
F0.06001355991514118
sg7
I00
sg8
F0.12082905553305459
sg10
S'phillip.allen@enron.com'
p348
sg12
F0.08901515151515152
sg13
F0.0024421365831252834
sg14
F0.09634567351381695
sg16
F0.25457510418554086
sg17
g18
sg19
F0.15206185567010308
sg20
F1.447914602382862e-05
sg21
g22
sg23
F0.07451757408683667
sg24
F0.5176544766708702
sg25
F0.03608308234920695
sg26
F0.10673234811165845
sg27
F1.0
sg29
F0.15723183630900145
sg30
F0.18138408921290516
sg31
F0.04330155824694069
sg32
F0.046409024368766386
sg34
F0.050262076693970224
sg36
F0.029612756264236904
ssS'SHARP VICTORIA T'
p349
(dp350
g3
F0.20401537238271933
sg4
F0.04440913455721657
sg6
F0.508229993657459
sg7
I00
sg8
g9
sg10
S'vicki.sharp@enron.com'
p351
sg12
F0.045454545454545456
sg13
F0.11962908305982482
sg14
g15
sg16
F0.4484508063054901
sg17
g18
sg19
F0.008637503482864307
sg20
F0.00023156980874109906
sg21
g22
sg23
F0.0352122231871472
sg24
F0.06683480453972257
sg25
F0.010949813394269228
sg26
F0.009852216748768473
sg27
F0.5987135760902587
sg29
F0.16224364546638456
sg30
F0.2229683438949712
sg31
F0.015221788371329393
sg32
F0.06952725172377586
sg34
F0.008088140901850362
sg36
F0.04411764705882353
ssS'JAEDICKE ROBERT'
p352
(dp353
g3
g39
sg4
g5
sg6
g52
sg7
I00
sg8
F0.993102145165208
sg10
g40
sg12
g41
sg13
g54
sg14
F0.10109721422411819
sg16
g42
sg17
g18
sg19
g43
sg20
g55
sg21
F0.7836660994657413
sg23
g44
sg24
g56
sg25
F0.009680623034004581
sg26
g45
sg27
F1.0
sg29
F0.15251381650683882
sg30
g57
sg31
F0.0008072835707383895
sg32
g33
sg34
F0.012475287958843851
sg36
g46
ssS'WINOKUR JR. HERBERT S'
p354
(dp355
g3
g39
sg4
g5
sg6
F0.005533320210834809
sg7
I00
sg8
F0.993102145165208
sg10
g40
sg12
g41
sg13
g54
sg14
g15
sg16
g42
sg17
g18
sg19
g43
sg20
g55
sg21
F0.782395470318549
sg23
g44
sg24
g56
sg25
g84
sg26
g45
sg27
g28
sg29
g80
sg30
g57
sg31
F0.0008192766593589617
sg32
g33
sg34
g35
sg36
g46
ssS'BROWN MICHAEL'
p356
(dp357
g3
F0.09468592631857937
sg4
g5
sg6
F0.21494652581851584
sg7
I00
sg8
g9
sg10
S'michael.brown@enron.com'
p358
sg12
F0.02462121212121212
sg13
g54
sg14
g15
sg16
F0.13752491393368363
sg17
g18
sg19
F0.002020061298411814
sg20
g55
sg21
g22
sg23
F0.04025156782451819
sg24
g56
sg25
g84
sg26
F0.0016420361247947454
sg27
g28
sg29
g80
sg30
g57
sg31
F0.0004745091584661187
sg32
g33
sg34
g35
sg36
F0.024390243902439025
ssS'BADUM JAMES P'
p359
(dp360
g3
g39
sg4
F0.04310903301789267
sg6
F0.01460096669072458
sg7
I00
sg8
g9
sg10
g40
sg12
g41
sg13
g54
sg14
g15
sg16
g42
sg17
g18
sg19
g43
sg20
g55
sg21
g22
sg23
g44
sg24
g56
sg25
F0.006142103383251037
sg26
g45
sg27
F1.0
sg29
g80
sg30
g57
sg31
F0.0017605120218401676
sg32
g33
sg34
F0.007411013722802197
sg36
g46
ssS'HUGHES JAMES A'
p361
(dp362
g3
F0.04386429896633978
sg4
g5
sg6
g52
sg7
I00
sg8
g9
sg10
S'james.hughes@enron.com'
p363
sg12
F0.06628787878787878
sg13
g54
sg14
g15
sg16
F0.10635984779851422
sg17
g18
sg19
F0.0015324602953468932
sg20
g55
sg21
g22
sg23
F0.22397389992010178
sg24
g56
sg25
F0.02364981397000877
sg26
F0.008210180623973728
sg27
F0.69757584185521
sg29
F0.17090213946829078
sg30
g57
sg31
g58
sg32
g33
sg34
F0.02188612121921675
sg36
F0.14705882352941177
ssS'REYNOLDS LAWRENCE'
p364
(dp365
g3
g39
sg4
F0.023564627558967086
sg6
F0.036134986768147324
sg7
I00
sg8
F0.9431528508345671
sg10
g40
sg12
g41
sg13
F0.23206992365351148
sg14
F0.09552003720785657
sg16
g42
sg17
g18
sg19
g43
sg20
F0.01950340969409715
sg21
g22
sg23
g44
sg24
F0.0037831021437578815
sg25
F0.0867878333254771
sg26
g45
sg27
F0.986505023289688
sg29
F0.1615768323081225
sg30
F0.06835010681673526
sg31
F0.003807728386863435
sg32
F0.017144086406179728
sg34
F0.12104746007574473
sg36
g46
ssS'DIMICHELE RICHARD G'
p366
(dp367
g3
g39
sg4
g5
sg6
F0.15600026244997048
sg7
I00
sg8
g9
sg10
S'richard.dimichele@enron.com'
p368
sg12
g41
sg13
F0.07124392524999673
sg14
g15
sg16
g42
sg17
g18
sg19
g43
sg20
F0.03616765190820183
sg21
g22
sg23
g44
sg24
F0.11727616645649433
sg25
F0.17011526854964149
sg26
g45
sg27
F0.9858990299806712
sg29
F0.15723183630900145
sg30
F0.23615006018288034
sg31
F0.022866078770354997
sg32
F0.12324921087795603
sg34
F0.2384174231088983
sg36
g46
ssS'BHATNAGAR SANJAY'
p369
(dp370
g3
F0.030877285979326794
sg4
g5
sg6
g52
sg7
I00
sg8
g9
sg10
S'sanjay.bhatnagar@enron.com'
p371
sg12
F0.0
sg13
g54
sg14
F1.0
sg16
F0.0835296249320529
sg17
g18
sg19
F0.0011841738645862357
sg20
F0.013307493527580408
sg21
F1.0
sg23
F0.0
sg24
g56
sg25
g84
sg26
F0.0016420361247947454
sg27
g28
sg29
F0.0
sg30
g57
sg31
F0.1492486962464964
sg32
g33
sg34
F0.07573729806398287
sg36
F0.034482758620689655
ssS'CARTER REBECCA C'
p372
(dp373
g3
F0.016896368937185265
sg4
g5
sg6
g52
sg7
I00
sg8
F0.9546292006999751
sg10
S'rebecca.carter@enron.com'
p374
sg12
F0.054924242424242424
sg13
F0.2669517840606622
sg14
F0.08583317820394383
sg16
F0.03515129552455155
sg17
g18
sg19
F0.00020897185845639453
sg20
F5.1931870405465315e-05
sg21
g22
sg23
F0.4276629841789416
sg24
F0.029003783102143757
sg25
g84
sg26
F0.011494252873563218
sg27
g28
sg29
F0.1676701686449942
sg30
F0.23526869833027392
sg31
F0.004609990696665675
sg32
F0.001138053560027351
sg34
g35
sg36
F0.4666666666666667
ssS'BUCHANAN HAROLD G'
p375
(dp376
g3
F0.06831433872250199
sg4
g5
sg6
F0.001977123110906983
sg7
I00
sg8
g9
sg10
S'john.buchanan@enron.com'
p377
sg12
F0.0
sg13
F0.1460880416414441
sg14
g15
sg16
F0.0038050371444102193
sg17
g18
sg19
F0.007871273335190861
sg20
F0.00011708802751269411
sg21
g22
sg23
F0.0
sg24
F0.05422446406052964
sg25
F0.021536280207024548
sg26
F0.0
sg27
F0.8265817741204045
sg29
F0.16086038245362366
sg30
F0.22285220939141018
sg31
F0.010182431583267787
sg32
F0.046409024368766386
sg34
F0.023938757608472756
sg36
F0.0
ssS'YEAP SOON'
p378
(dp379
g3
g39
sg4
g5
sg6
F0.24035605712661023
sg7
I00
sg8
g9
sg10
g40
sg12
g41
sg13
g54
sg14
g15
sg16
g42
sg17
g18
sg19
g43
sg20
g55
sg21
g22
sg23
g44
sg24
g56
sg25
F0.004818533100680307
sg26
g45
sg27
F1.0
sg29
g80
sg30
g57
sg31
F0.0005306024368855263
sg32
g33
sg34
F0.0055167405398947895
sg36
g46
ssS'MURRAY JULIA H'
p380
(dp381
g3
F0.1414656771799629
sg4
g5
sg6
F0.2512171117380749
sg7
I00
sg8
g9
sg10
S'julia.murray@enron.com'
p382
sg12
F0.020833333333333332
sg13
F0.170852322815082
sg14
g15
sg16
F0.07120855227396268
sg17
g18
sg19
F0.00229869044302034
sg20
F3.166106597210525e-05
sg21
g22
sg23
F0.023089280167727908
sg24
F0.0416141235813367
sg25
F0.013051873054679327
sg26
F0.003284072249589491
sg27
F0.6931599034866699
sg29
F0.16131770802382378
sg30
F0.205987498885919
sg31
F0.007841336265685344
sg32
F0.010987919926890351
sg34
F0.011564765033869898
sg36
F0.044444444444444446
ssS'GARLAND C KEVIN'
p383
(dp384
g3
F0.010071561091969255
sg4
g5
sg6
F0.21108413708636792
sg7
I00
sg8
g9
sg10
S'kevin.garland@enron.com'
p385
sg12
F0.01893939393939394
sg13
F0.07448149725045637
sg14
g15
sg16
F0.03188983511505707
sg17
g18
sg19
F0.0022290331568682086
sg20
F0.00587003885334044
sg21
g22
sg23
F0.22014659472666193
sg24
F0.09836065573770492
sg25
F0.01912850895196666
sg26
F0.04433497536945813
sg27
F0.7300839323444739
sg29
F0.16494107168276
sg30
F0.20838401088963532
sg31
F0.015124820097635522
sg32
F0.060297138948715884
sg34
F0.018429441708699108
sg36
F0.6136363636363636
ssS'DODSON KEITH'
p386
(dp387
g3
F0.007884972170686457
sg4
g5
sg6
F0.12254663954683638
sg7
I00
sg8
g9
sg10
S'keith.dodson@enron.com'
p388
sg12
F0.01893939393939394
sg13
F1.0
sg14
g15
sg16
F0.020293531436854504
sg17
g18
sg19
F0.00013931457230426304
sg20
F7.451933820263797e-05
sg21
g22
sg23
F0.261424081237911
sg24
F0.0
sg25
g84
sg26
F0.0049261083743842365
sg27
g28
sg29
g80
sg30
F0.19853238397127787
sg31
F0.0030880078818346663
sg32
g33
sg34
g35
sg36
F0.21428571428571427
ssS'YEAGER F SCOTT'
p389
(dp390
g3
g39
sg4
g5
sg6
F0.2353257660258513
sg7
I01
sg8
g9
sg10
S'scott.yeager@enron.com'
p391
sg12
g41
sg13
g54
sg14
g15
sg16
g42
sg17
g18
sg19
g43
sg20
F0.014281071306222644
sg21
g22
sg23
g44
sg24
g56
sg25
F0.2426823758252377
sg26
g45
sg27
F0.7199567499085571
sg29
F0.3559040949928896
sg30
F0.1421756403827577
sg31
F0.0034777253243770774
sg32
g33
sg34
F0.2418181120980318
sg36
g46
ssS'HIRKO JOSEPH'
p392
(dp393
g3
g39
sg4
F0.017269189477279238
sg6
F0.3404413533670144
sg7
I01
sg8
g9
sg10
S'joe.hirko@enron.com'
p394
sg12
g41
sg13
g54
sg14
g15
sg16
g42
sg17
g18
sg19
g43
sg20
F0.0002754898850133792
sg21
g22
sg23
g44
sg24
g56
sg25
F0.6268065633738387
sg26
g45
sg27
F1.0
sg29
g80
sg30
g57
sg31
F0.0008781895689194376
sg32
g33
sg34
F0.8956963262793332
sg36
g46
ssS'DIETRICH JANET R'
p395
(dp396
g3
F0.16664457990988604
sg4
g5
sg6
F0.014552850862804279
sg7
I00
sg8
g9
sg10
S'janet.dietrich@enron.com'
p397
sg12
F0.5776515151515151
sg13
F0.12067408421332004
sg14
g15
sg16
F0.3442652654466389
sg17
g18
sg19
F0.003552521593758707
sg20
F4.546451851482187e-05
sg21
g22
sg23
F0.5456160451341783
sg24
F0.06683480453972257
sg25
F0.03884065097954759
sg26
F0.022988505747126436
sg27
F0.8427834991851365
sg29
F0.1681174171596938
sg30
F0.22472746653030615
sg31
F0.013618393535435546
sg32
F0.09597571889742172
sg34
F0.04503507181621459
sg36
F0.2222222222222222
ssS'DERRICK JR. JAMES V'
p398
(dp399
g3
F0.14073681420620196
sg4
g5
sg6
F0.22297749491503183
sg7
I00
sg8
F0.6337526505236256
sg10
S'james.derrick@enron.com'
p400
sg12
F0.12121212121212122
sg13
F0.18441233586378197
sg14
F0.0
sg16
F0.25348795071570934
sg17
g18
sg19
F0.06248258567846197
sg20
F0.0007220267483882539
sg21
g22
sg23
F0.1350151696957281
sg24
F0.09205548549810845
sg25
F0.18057482853286244
sg26
F0.03284072249589491
sg27
F1.0
sg29
F0.2528978156628998
sg30
F0.4428397676949822
sg31
F0.0053189927408499715
sg32
F0.08170996044096669
sg34
F0.25705641436642823
sg36
F0.022002200220022004
ssS'FREVERT MARK A'
p401
(dp402
g3
F0.21322554996024384
sg4
F1.0
sg6
F0.37984821643374234
sg7
I00
sg8
F0.03921019604955313
sg10
S'mark.frevert@enron.com'
p403
sg12
F0.4583333333333333
sg13
F0.15713660245530722
sg14
g15
sg16
F0.5394093132813915
sg17
F0.019722650231124808
sg19
F0.0006269155753691836
sg20
F0.7169705340690927
sg21
g22
sg23
F0.3399870066590872
sg24
F0.24337957124842372
sg25
F0.29837301090888096
sg26
F0.009852216748768473
sg27
F0.7334022463807693
sg29
F0.39117154350086353
sg30
F0.9546931393316954
sg31
F0.1665936765233214
sg32
F0.304910099284683
sg34
F0.30368912315553376
sg36
F0.2857142857142857
ssS'PAI LOU L'
p404
(dp405
g3
g39
sg4
g5
sg6
F0.13953152680270323
sg7
I00
sg8
g9
sg10
S'lou.pai@enron.com'
p406
sg12
g41
sg13
F0.07095224478473762
sg14
g15
sg16
g42
sg17
g18
sg19
g43
sg20
F0.17659297392682258
sg21
g22
sg23
g44
sg24
F0.11727616645649433
sg25
F0.48545265873774984
sg26
g45
sg27
F0.6696768750058589
sg29
F0.6367693098264996
sg30
F0.2353317170531365
sg31
F0.030158803653681895
sg32
g33
sg34
F0.44725106193463005
sg36
g46
ssS'BAY FRANKLIN R'
p407
(dp408
g3
g39
sg4
F0.055587036659831016
sg6
F0.564241191522866
sg7
I00
sg8
F0.9426844691660152
sg10
S'frank.bay@enron.com'
p409
sg12
g41
sg13
F0.17918478979155708
sg14
F0.09885355031730485
sg16
g42
sg17
g18
sg19
g43
sg20
F6.46735189064345e-06
sg21
g22
sg23
g44
sg24
F0.0416141235813367
sg25
F0.0021790012489479277
sg26
g45
sg27
g28
sg29
F0.1583701980815129
sg30
F0.2153385770912538
sg31
F0.007991027779208784
sg32
g33
sg34
g35
sg36
g46
ssS'HAYSLETT RODERICK J'
p410
(dp411
g3
F0.17174662072621255
sg4
g5
sg6
g52
sg7
I00
sg8
g9
sg10
S'rod.hayslett@enron.com'
p412
sg12
F0.06628787878787878
sg13
g54
sg14
g15
sg16
F0.10309838738901975
sg17
g18
sg19
F0.07307049317358595
sg20
g55
sg21
g22
sg23
F0.06079170783033341
sg24
g56
sg25
F0.00794960004513147
sg26
F0.06239737274220033
sg27
g28
sg29
F0.1699367575513423
sg30
g57
sg31
g58
sg32
g33
sg34
g35
sg36
F0.03581526861451461
ssS'FUGH JOHN L'
p413
(dp414
g3
g39
sg4
F0.023446088438760147
sg6
g52
sg7
I00
sg8
g9
sg10
g40
sg12
g41
sg13
g54
sg14
g15
sg16
g42
sg17
g18
sg19
g43
sg20
g55
sg21
g22
sg23
g44
sg24
g56
sg25
F0.004485295866346724
sg26
g45
sg27
F1.0
sg29
g80
sg30
g57
sg31
F0.0004870912796195854
sg32
g33
sg34
F0.005039816597995539
sg36
g46
ssS'FALLON JAMES B'
p415
(dp416
g3
F0.11250993904055129
sg4
g5
sg6
F0.418940139535901
sg7
I00
sg8
g9
sg10
S'jim.fallon@enron.com'
p417
sg12
F0.07954545454545454
sg13
F0.02601490623616411
sg14
g15
sg16
F0.2902699764450081
sg17
g18
sg19
F0.004388409027584285
sg20
F0.03875382044333794
sg21
g22
sg23
F0.11011092925986543
sg24
F0.3064312736443884
sg25
F0.04834771804004181
sg26
F0.060755336617405585
sg27
F0.4445133650345451
sg29
F0.23013875702341977
sg30
F0.2737812404065248
sg31
F0.03549830631420183
sg32
F0.06010861250645413
sg34
F0.02728109766112481
sg36
F0.49333333333333335
ssS'KOENIG MARK E'
p418
(dp419
g3
F0.15352504638218925
sg4
g5
sg6
F0.5549460884018984
sg7
I01
sg8
g9
sg10
S'mark.koenig@enron.com'
p420
sg12
F0.10037878787878787
sg13
F0.1289998661772984
sg14
g15
sg16
F0.4111252038412756
sg17
g18
sg19
F0.0034132070214544443
sg20
F0.01452316262774106
sg21
g22
sg23
F0.10271962214773522
sg24
F0.07944514501891552
sg25
F0.039958928409147616
sg26
F0.024630541871921183
sg27
F0.39493157763145526
sg29
F0.2218569145645353
sg30
F0.2786048735079192
sg31
F0.01532713828827822
sg32
F0.04546245221091085
sg34
F0.01946280603238325
sg36
F0.2459016393442623
ssS'SAVAGE FRANK'
p421
(dp422
g3
g39
sg4
g5
sg6
g52
sg7
I00
sg8
F0.9656203288490284
sg10
g40
sg12
g41
sg13
g54
sg14
g15
sg16
g42
sg17
g18
sg19
g43
sg20
g55
sg21
F0.9046656610615327
sg23
g44
sg24
g56
sg25
g84
sg26
g45
sg27
g28
sg29
g80
sg30
g57
sg31
F3.478188825386568e-05
sg32
g33
sg34
g35
sg36
g46
ssS'IZZO LAWRENCE L'
p423
(dp424
g3
F0.029088258680095416
sg4
g5
sg6
F0.1222360737484417
sg7
I00
sg8
g9
sg10
S'larry.izzo@enron.com'
p425
sg12
F0.05303030303030303
sg13
g54
sg14
g15
sg16
F0.07881862656278311
sg17
g18
sg19
F0.0004876010030649206
sg20
F0.14997760076110114
sg21
g22
sg23
F0.2597374742621826
sg24
g56
sg25
F0.11929960124848815
sg26
F0.008210180623973728
sg27
F0.41556529227409894
sg29
F0.36043024765832266
sg30
F0.07633998060823871
sg31
F0.01911408637988282
sg32
F0.04792491880262661
sg34
F0.06294601159833606
sg36
F0.2631578947368421
ssS'TILNEY ELIZABETH A'
p426
(dp427
g3
F0.026702888947786906
sg4
g5
sg6
g52
sg7
I00
sg8
F0.8361186486974794
sg10
S'elizabeth.tilney@enron.com'
p428
sg12
F0.01893939393939394
sg13
F0.2514735735261388
sg14
g15
sg16
F0.06830947635441204
sg17
g18
sg19
F0.0004876010030649206
sg20
F0.014677317269074754
sg21
g22
sg23
F0.10002312673450509
sg24
F0.029003783102143757
sg25
F0.02465986050298763
sg26
F0.0180623973727422
sg27
F0.5404278594779537
sg29
F0.1831883158672049
sg30
F0.22224092777964333
sg31
F0.003855217927794171
sg32
F0.04053751902747935
sg34
F0.01711932756402886
sg36
F0.5789473684210527
ssS'MARTIN AMANDA K'
p429
(dp430
g3
F0.09707129605088789
sg4
F0.028781727209935232
sg6
F0.035268901865581875
sg7
I00
sg8
g9
sg10
S'a..martin@enron.com'
p431
sg12
F0.015151515151515152
sg13
g54
sg14
g15
sg16
F0.08606631636165972
sg17
g18
sg19
F0.01518528838116467
sg20
F0.27205852046101214
sg21
g22
sg23
F0.0241843039673442
sg24
g56
sg25
F0.043015657816708984
sg26
F0.0
sg27
F1.0
sg29
g80
sg30
F0.3142023495180418
sg31
F0.08117899593031629
sg32
F1.0
sg34
F0.060183870775856546
sg36
F0.0
ssS'BUY RICHARD B'
p432
(dp433
g3
F0.22965809700503578
sg4
F0.11518265591952817
sg6
g52
sg7
I00
sg8
F0.8019070925999978
sg10
S'rick.buy@enron.com'
p434
sg12
F0.29545454545454547
sg13
F0.10477124168500172
sg14
g15
sg16
F0.4223591230295343
sg17
g18
sg19
F0.07251323488436891
sg20
F0.03866607681843354
sg21
g22
sg23
F0.20373714375441626
sg24
F0.10466582597730138
sg25
F0.07097186116718356
sg26
F0.11658456486042693
sg27
F0.7563805957284048
sg29
F0.20189507378247287
sg30
F0.2971503833789019
sg31
F0.022745867852289374
sg32
F0.13802401042825052
sg34
F0.07394149599044685
sg36
F0.06742640075973409
ssS'GRAMM WENDY L'
p435
(dp436
g3
g39
sg4
g5
sg6
g52
sg7
I00
sg8
g9
sg10
g40
sg12
g41
sg13
g54
sg14
g15
sg16
g42
sg17
g18
sg19
g43
sg20
g55
sg21
F0.8619992718031788
sg23
g44
sg24
g56
sg25
g84
sg26
g45
sg27
g28
sg29
g80
sg30
g57
sg31
F0.0011504867557242014
sg32
g33
sg34
g35
sg36
g46
ssS'CAUSEY RICHARD A'
p437
(dp438
g3
F0.121587596077392
sg4
g5
sg6
F0.13352579664501454
sg7
I01
sg8
F0.9331629919684389
sg10
S'richard.causey@enron.com'
p439
sg12
F0.10984848484848485
sg13
F0.12014644954697491
sg14
g15
sg16
F0.28682732379054177
sg17
g18
sg19
F0.002577319587628866
sg20
F0.0297201847114311
sg21
g22
sg23
F0.14104741127254733
sg24
F0.11727616645649433
sg25
F0.05179938849950292
sg26
F0.019704433497536946
sg27
g28
sg29
F0.29405153141300355
sg30
F0.3733517227968429
sg31
F0.018043804611342574
sg32
F0.055312318577773856
sg34
g35
sg36
F0.24489795918367346
ssS'TAYLOR MITCHELL S'
p440
(dp441
g3
F0.03153988868274583
sg4
F0.0505321242547274
sg6
g52
sg7
I00
sg8
g9
sg10
S'mitchell.taylor@enron.com'
p442
sg12
F0.0
sg13
F0.12875706652341565
sg14
g15
sg16
F0.05399528900163073
sg17
g18
sg19
F0.0011841738645862357
sg20
g55
sg21
g22
sg23
F0.0
sg24
F0.06683480453972257
sg25
F0.0770868661379723
sg26
F0.0
sg27
F0.8598932473316242
sg29
F0.18244008010049875
sg30
F0.23833410906380287
sg31
F0.010549620945494744
sg32
g33
sg34
F0.09253037820621801
sg36
F0.0
ssS'DONAHUE JR JEFFREY M'
p443
(dp444
g3
F0.05353829843625762
sg4
g5
sg6
F0.4204448526999541
sg7
I00
sg8
F0.9146103969313437
sg10
S'jeff.donahue@enron.com'
p445
sg12
F0.3560606060606061
sg13
F0.0986674241747001
sg14
g15
sg16
F0.1395180286283747
sg17
g18
sg19
F0.0006965728615213151
sg20
F8.581307210122428e-05
sg21
g22
sg23
F1.0
sg24
F0.09205548549810845
sg25
F0.02288882056417959
sg26
F0.0180623973727422
sg27
F0.7287458770538697
sg29
F0.1681174171596938
sg30
F0.25038598967753317
sg31
F0.008455146790045486
sg32
g33
sg34
F0.022205060465832403
sg36
F0.5
ssS'GLISAN JR BEN F'
p446
(dp447
g3
F0.05406838059899284
sg4
g5
sg6
F0.5504013297465171
sg7
I01
sg8
g9
sg10
S'ben.glisan@enron.com'
p448
sg12
F0.09848484848484848
sg13
F0.1339772590818941
sg14
g15
sg16
F0.15799963761551006
sg17
g18
sg19
F0.00027862914460852607
sg20
F0.019335065489660103
sg21
g22
sg23
F0.27406107577197725
sg24
F0.06683480453972257
sg25
F0.016735894091266437
sg26
F0.009852216748768473
sg27
F0.5292349539645023
sg29
F0.17265209213492153
sg30
F0.24712161983325245
sg31
F0.012284090004364152
sg32
F0.000354595189207068
sg34
F0.011106184320505235
sg36
F0.375
ss.