(lp0
S'poi'
p1
aS'salary'
p2
aS'bonus'
p3
aS'fract_to_poi'
p4
aS'fract_from_poi'
p5
aS'director_fees'
p6
aS'restricted_stock_deferred'
p7
aS'exercised_stock_options'
p8
aS'expenses'
p9
aS'total_stock_value'
p10
aS'exer_stock_opts_over_tot'
p11
aS'salary_over_bonus'
p12
a.